	.file	"Form.cpp"
	.text
.Ltext0:
	.file 0 "/home/suvao/Projetos/cpp-s/cpp05/ex01" "src/Form.cpp"
#APP
	.globl _ZSt21ios_base_library_initv
	.section	.rodata.str1.1,"aMS",@progbits,1
.LC0:
	.string	"Grade too high!"
#NO_APP
	.text
	.align 2
	.p2align 4
	.globl	_ZNK4Form21GradeTooHighException4whatEv
	.type	_ZNK4Form21GradeTooHighException4whatEv, @function
_ZNK4Form21GradeTooHighException4whatEv:
.LVL0:
.LFB1165:
	.file 1 "src/Form.cpp"
	.loc 1 49 1 view -0
	.cfi_startproc
	.loc 1 49 1 is_stmt 0 view .LVU1
	endbr64
	.loc 1 50 2 is_stmt 1 view .LVU2
	.loc 1 50 9 is_stmt 0 discriminator 1 view .LVU3
	leaq	.LC0(%rip), %rax
	.loc 1 51 1 view .LVU4
	ret
	.cfi_endproc
.LFE1165:
	.size	_ZNK4Form21GradeTooHighException4whatEv, .-_ZNK4Form21GradeTooHighException4whatEv
	.section	.rodata.str1.1
.LC1:
	.string	"Grade too Low!"
	.text
	.align 2
	.p2align 4
	.globl	_ZNK4Form20GradeTooLowException4whatEv
	.type	_ZNK4Form20GradeTooLowException4whatEv, @function
_ZNK4Form20GradeTooLowException4whatEv:
.LVL1:
.LFB1166:
	.loc 1 54 1 is_stmt 1 view -0
	.cfi_startproc
	.loc 1 54 1 is_stmt 0 view .LVU6
	endbr64
	.loc 1 55 2 is_stmt 1 view .LVU7
	.loc 1 55 9 is_stmt 0 discriminator 1 view .LVU8
	leaq	.LC1(%rip), %rax
	.loc 1 56 1 view .LVU9
	ret
	.cfi_endproc
.LFE1166:
	.size	_ZNK4Form20GradeTooLowException4whatEv, .-_ZNK4Form20GradeTooLowException4whatEv
	.section	.text._ZN4Form20GradeTooLowExceptionD2Ev,"axG",@progbits,_ZN4Form20GradeTooLowExceptionD5Ev,comdat
	.align 2
	.p2align 4
	.weak	_ZN4Form20GradeTooLowExceptionD2Ev
	.type	_ZN4Form20GradeTooLowExceptionD2Ev, @function
_ZN4Form20GradeTooLowExceptionD2Ev:
.LVL2:
.LFB1152:
	.file 2 "src/../inc/Form.hpp"
	.loc 2 35 8 is_stmt 1 view -0
	.cfi_startproc
	.loc 2 35 8 is_stmt 0 view .LVU11
	endbr64
.LBB346:
	.loc 2 35 8 view .LVU12
	leaq	16+_ZTVN4Form20GradeTooLowExceptionE(%rip), %rax
	movq	%rax, (%rdi)
	jmp	_ZNSt9exceptionD2Ev@PLT
.LVL3:
	.loc 2 35 8 view .LVU13
.LBE346:
	.cfi_endproc
.LFE1152:
	.size	_ZN4Form20GradeTooLowExceptionD2Ev, .-_ZN4Form20GradeTooLowExceptionD2Ev
	.weak	_ZN4Form20GradeTooLowExceptionD1Ev
	.set	_ZN4Form20GradeTooLowExceptionD1Ev,_ZN4Form20GradeTooLowExceptionD2Ev
	.section	.text._ZN4Form20GradeTooLowExceptionD0Ev,"axG",@progbits,_ZN4Form20GradeTooLowExceptionD5Ev,comdat
	.align 2
	.p2align 4
	.weak	_ZN4Form20GradeTooLowExceptionD0Ev
	.type	_ZN4Form20GradeTooLowExceptionD0Ev, @function
_ZN4Form20GradeTooLowExceptionD0Ev:
.LVL4:
.LFB1154:
	.loc 2 35 8 is_stmt 1 view -0
	.cfi_startproc
	.loc 2 35 8 is_stmt 0 view .LVU15
	endbr64
.LVL5:
.LBB347:
.LBI347:
	.loc 2 35 8 is_stmt 1 view .LVU16
.LBB348:
	leaq	16+_ZTVN4Form20GradeTooLowExceptionE(%rip), %rax
.LBE348:
.LBE347:
	pushq	%rbx
	.cfi_def_cfa_offset 16
	.cfi_offset 3, -16
	.loc 2 35 8 is_stmt 0 view .LVU17
	movq	%rdi, %rbx
.LBB350:
.LBB349:
	movq	%rax, (%rdi)
	call	_ZNSt9exceptionD2Ev@PLT
.LVL6:
	.loc 2 35 8 view .LVU18
.LBE349:
.LBE350:
	.loc 2 35 8 discriminator 1 view .LVU19
	movq	%rbx, %rdi
	.loc 2 35 8 view .LVU20
	popq	%rbx
	.cfi_def_cfa_offset 8
.LVL7:
	.loc 2 35 8 discriminator 1 view .LVU21
	jmp	_ZdlPv@PLT
.LVL8:
	.loc 2 35 8 discriminator 1 view .LVU22
	.cfi_endproc
.LFE1154:
	.size	_ZN4Form20GradeTooLowExceptionD0Ev, .-_ZN4Form20GradeTooLowExceptionD0Ev
	.section	.text._ZN4Form21GradeTooHighExceptionD2Ev,"axG",@progbits,_ZN4Form21GradeTooHighExceptionD5Ev,comdat
	.align 2
	.p2align 4
	.weak	_ZN4Form21GradeTooHighExceptionD2Ev
	.type	_ZN4Form21GradeTooHighExceptionD2Ev, @function
_ZN4Form21GradeTooHighExceptionD2Ev:
.LVL9:
.LFB1139:
	.loc 2 31 8 is_stmt 1 view -0
	.cfi_startproc
	.loc 2 31 8 is_stmt 0 view .LVU24
	endbr64
.LBB351:
	.loc 2 31 8 view .LVU25
	leaq	16+_ZTVN4Form21GradeTooHighExceptionE(%rip), %rax
	movq	%rax, (%rdi)
	jmp	_ZNSt9exceptionD2Ev@PLT
.LVL10:
	.loc 2 31 8 view .LVU26
.LBE351:
	.cfi_endproc
.LFE1139:
	.size	_ZN4Form21GradeTooHighExceptionD2Ev, .-_ZN4Form21GradeTooHighExceptionD2Ev
	.weak	_ZN4Form21GradeTooHighExceptionD1Ev
	.set	_ZN4Form21GradeTooHighExceptionD1Ev,_ZN4Form21GradeTooHighExceptionD2Ev
	.section	.text._ZN4Form21GradeTooHighExceptionD0Ev,"axG",@progbits,_ZN4Form21GradeTooHighExceptionD5Ev,comdat
	.align 2
	.p2align 4
	.weak	_ZN4Form21GradeTooHighExceptionD0Ev
	.type	_ZN4Form21GradeTooHighExceptionD0Ev, @function
_ZN4Form21GradeTooHighExceptionD0Ev:
.LVL11:
.LFB1141:
	.loc 2 31 8 is_stmt 1 view -0
	.cfi_startproc
	.loc 2 31 8 is_stmt 0 view .LVU28
	endbr64
.LVL12:
.LBB352:
.LBI352:
	.loc 2 31 8 is_stmt 1 view .LVU29
.LBB353:
	leaq	16+_ZTVN4Form21GradeTooHighExceptionE(%rip), %rax
.LBE353:
.LBE352:
	pushq	%rbx
	.cfi_def_cfa_offset 16
	.cfi_offset 3, -16
	.loc 2 31 8 is_stmt 0 view .LVU30
	movq	%rdi, %rbx
.LBB355:
.LBB354:
	movq	%rax, (%rdi)
	call	_ZNSt9exceptionD2Ev@PLT
.LVL13:
	.loc 2 31 8 view .LVU31
.LBE354:
.LBE355:
	.loc 2 31 8 discriminator 1 view .LVU32
	movq	%rbx, %rdi
	.loc 2 31 8 view .LVU33
	popq	%rbx
	.cfi_def_cfa_offset 8
.LVL14:
	.loc 2 31 8 discriminator 1 view .LVU34
	jmp	_ZdlPv@PLT
.LVL15:
	.loc 2 31 8 discriminator 1 view .LVU35
	.cfi_endproc
.LFE1141:
	.size	_ZN4Form21GradeTooHighExceptionD0Ev, .-_ZN4Form21GradeTooHighExceptionD0Ev
	.text
	.align 2
	.p2align 4
	.globl	_ZN4FormC2Ev
	.type	_ZN4FormC2Ev, @function
_ZN4FormC2Ev:
.LVL16:
.LFB1126:
	.loc 1 4 1 is_stmt 1 view -0
	.cfi_startproc
	.loc 1 4 1 is_stmt 0 view .LVU37
	endbr64
.LVL17:
.LBB441:
.LBB442:
.LBI442:
	.file 3 "/usr/include/c++/13/bits/allocator.h"
	.loc 3 163 7 is_stmt 1 view .LVU38
.LBB443:
.LBI443:
	.file 4 "/usr/include/c++/13/bits/new_allocator.h"
	.loc 4 88 7 view .LVU39
	.loc 4 88 7 is_stmt 0 view .LVU40
.LBE443:
.LBE442:
.LBB444:
.LBI444:
	.file 5 "/usr/include/c++/13/bits/basic_string.h"
	.loc 5 641 7 is_stmt 1 view .LVU41
.LBB445:
.LBI445:
	.loc 5 227 7 view .LVU42
.LBB446:
	.loc 5 232 29 is_stmt 0 view .LVU43
	leaq	16(%rdi), %rax
.LVL18:
	.loc 5 232 29 view .LVU44
.LBE446:
.LBE445:
.LBB447:
.LBI447:
	.loc 5 184 2 is_stmt 1 view .LVU45
.LBB448:
.LBB449:
.LBI449:
	.loc 3 167 7 view .LVU46
.LBB450:
.LBI450:
	.loc 4 92 7 view .LVU47
	.loc 4 92 7 is_stmt 0 view .LVU48
.LBE450:
.LBE449:
.LBE448:
.LBE447:
.LBB452:
.LBB453:
.LBB454:
.LBB455:
.LBB456:
.LBB457:
.LBB458:
.LBB459:
	.file 6 "/usr/include/c++/13/bits/char_traits.h"
	.loc 6 435 49 view .LVU49
	movl	$1634100548, 16(%rdi)
.LBE459:
.LBE458:
.LBE457:
.LBE456:
.LBE455:
.LBE454:
.LBE453:
.LBE452:
.LBB482:
.LBB451:
	.loc 5 185 25 discriminator 1 view .LVU50
	movq	%rax, (%rdi)
.LVL19:
	.loc 5 185 25 discriminator 1 view .LVU51
.LBE451:
.LBE482:
.LBB483:
.LBB479:
.LBI479:
	.loc 6 393 7 is_stmt 1 view .LVU52
	.loc 6 399 2 view .LVU53
	.loc 6 399 2 is_stmt 0 view .LVU54
.LBE479:
.LBB480:
.LBI453:
	.file 7 "/usr/include/c++/13/bits/basic_string.tcc"
	.loc 7 221 7 is_stmt 1 view .LVU55
.LBB477:
.LBB468:
.LBI468:
	.loc 7 239 13 view .LVU56
	.loc 7 239 13 is_stmt 0 view .LVU57
.LBE468:
.LBB469:
.LBI455:
	.loc 5 482 7 is_stmt 1 view .LVU58
.LBB466:
.LBI456:
	.loc 5 425 7 view .LVU59
.LBB464:
.LBI457:
	.loc 5 425 7 view .LVU60
.LBB462:
.LBI458:
	.loc 6 427 7 view .LVU61
.LBB460:
	.loc 6 429 2 view .LVU62
	.loc 6 435 2 view .LVU63
.LBE460:
.LBE462:
.LBE464:
.LBE466:
.LBE469:
.LBE477:
.LBE480:
.LBE483:
.LBE444:
	.loc 1 4 47 is_stmt 0 discriminator 1 view .LVU64
	movq	.LC2(%rip), %rax
.LVL20:
.LBB485:
.LBB484:
.LBB481:
.LBB478:
.LBB470:
.LBB467:
.LBB465:
.LBB463:
.LBB461:
	.loc 6 435 49 view .LVU65
	movl	$1953264993, 19(%rdi)
.LVL21:
	.loc 6 435 49 view .LVU66
.LBE461:
.LBE463:
.LBE465:
.LBE467:
.LBE470:
.LBB471:
.LBI471:
	.loc 5 254 7 is_stmt 1 view .LVU67
.LBB472:
.LBI472:
	.loc 5 217 7 view .LVU68
.LBB473:
	.loc 5 218 26 is_stmt 0 view .LVU69
	movq	$7, 8(%rdi)
.LVL22:
	.loc 5 218 26 view .LVU70
.LBE473:
.LBE472:
.LBB474:
.LBI474:
	.loc 6 351 7 is_stmt 1 view .LVU71
.LBB475:
	.loc 6 358 2 view .LVU72
	.loc 6 358 7 is_stmt 0 view .LVU73
	movb	$0, 23(%rdi)
.LVL23:
	.loc 6 358 7 view .LVU74
.LBE475:
.LBE474:
.LBE471:
.LBB476:
.LBI476:
	.loc 7 242 4 is_stmt 1 view .LVU75
	.loc 7 242 4 is_stmt 0 view .LVU76
.LBE476:
.LBE478:
.LBE481:
.LBE484:
.LBE485:
.LBB486:
.LBI486:
	.loc 3 184 7 is_stmt 1 view .LVU77
.LBB487:
.LBI487:
	.loc 4 104 7 view .LVU78
	.loc 4 104 7 is_stmt 0 view .LVU79
.LBE487:
.LBE486:
	.loc 1 4 33 discriminator 1 view .LVU80
	movb	$0, 32(%rdi)
	.loc 1 4 47 discriminator 1 view .LVU81
	movq	%rax, 36(%rdi)
.LBE441:
	.loc 1 4 84 view .LVU82
	ret
	.cfi_endproc
.LFE1126:
	.size	_ZN4FormC2Ev, .-_ZN4FormC2Ev
	.globl	_ZN4FormC1Ev
	.set	_ZN4FormC1Ev,_ZN4FormC2Ev
	.section	.rodata.str1.1
.LC3:
	.string	"Form destructor called\n"
	.section	.text.unlikely,"ax",@progbits
	.align 2
.LCOLDB4:
	.text
.LHOTB4:
	.align 2
	.p2align 4
	.section	.text.unlikely
.Ltext_cold0:
	.text
	.globl	_ZN4FormD2Ev
	.type	_ZN4FormD2Ev, @function
_ZN4FormD2Ev:
.LVL24:
.LFB1129:
	.loc 1 6 1 is_stmt 1 view -0
	.cfi_startproc
	.cfi_personality 0x9b,DW.ref.__gxx_personality_v0
	.cfi_lsda 0x1b,.LLSDA1129
	.loc 1 6 1 is_stmt 0 view .LVU84
	endbr64
.LBB547:
	.loc 1 6 16 is_stmt 1 view .LVU85
.LVL25:
.LBB548:
.LBI548:
	.file 8 "/usr/include/c++/13/ostream"
	.loc 8 662 5 view .LVU86
.LBE548:
.LBE547:
	.loc 1 6 1 is_stmt 0 view .LVU87
	pushq	%rbp
	.cfi_def_cfa_offset 16
	.cfi_offset 6, -16
.LBB579:
.LBB552:
.LBB549:
	.loc 8 667 18 view .LVU88
	movl	$23, %edx
	leaq	.LC3(%rip), %rsi
.LBE549:
.LBE552:
.LBE579:
	.loc 1 6 1 view .LVU89
	pushq	%rbx
	.cfi_def_cfa_offset 24
	.cfi_offset 3, -24
	movq	%rdi, %rbx
.LBB580:
.LBB553:
.LBB550:
	.loc 8 667 18 view .LVU90
	leaq	_ZSt4cout(%rip), %rdi
.LVL26:
	.loc 8 667 18 view .LVU91
.LBE550:
.LBE553:
.LBE580:
	.loc 1 6 1 view .LVU92
	subq	$8, %rsp
	.cfi_def_cfa_offset 32
.LEHB0:
.LBB581:
.LBB554:
.LBB551:
	.loc 8 667 18 view .LVU93
	call	_ZSt16__ostream_insertIcSt11char_traitsIcEERSt13basic_ostreamIT_T0_ES6_PKS3_l@PLT
.LVL27:
.LEHE0:
	.loc 8 667 18 view .LVU94
.LBE551:
.LBE554:
.LBB555:
.LBI555:
	.loc 5 803 7 is_stmt 1 view .LVU95
.LBB556:
.LBI556:
	.loc 5 280 7 view .LVU96
.LBB557:
.LBI557:
	.loc 5 262 7 view .LVU97
.LBB558:
.LBB559:
.LBI559:
	.loc 5 222 7 view .LVU98
.LBB560:
	.loc 5 223 28 is_stmt 0 view .LVU99
	movq	(%rbx), %rdi
.LVL28:
	.loc 5 223 28 view .LVU100
.LBE560:
.LBE559:
.LBB561:
.LBI561:
	.loc 5 238 7 is_stmt 1 view .LVU101
.LBB562:
	.loc 5 243 35 is_stmt 0 view .LVU102
	addq	$16, %rbx
.LVL29:
	.loc 5 243 35 view .LVU103
.LBE562:
.LBE561:
	.loc 5 264 2 discriminator 2 view .LVU104
	cmpq	%rbx, %rdi
	je	.L11
.LVL30:
	.loc 5 264 2 discriminator 2 view .LVU105
.LBE558:
.LBE557:
.LBB563:
.LBI563:
	.loc 5 288 7 is_stmt 1 view .LVU106
.LBB564:
.LBI564:
	.file 9 "/usr/include/c++/13/ext/alloc_traits.h"
	.loc 9 149 17 view .LVU107
.LBB565:
.LBI565:
	.loc 4 156 7 view .LVU108
	.loc 4 156 7 is_stmt 0 view .LVU109
.LBE565:
.LBE564:
.LBE563:
.LBE556:
.LBE555:
.LBE581:
	.loc 1 6 56 view .LVU110
	addq	$8, %rsp
	.cfi_remember_state
	.cfi_def_cfa_offset 24
	popq	%rbx
	.cfi_def_cfa_offset 16
.LVL31:
	.loc 1 6 56 view .LVU111
	popq	%rbp
	.cfi_def_cfa_offset 8
.LBB582:
.LBB571:
.LBB570:
.LBB569:
.LBB568:
.LBB567:
.LBB566:
	.loc 4 172 26 view .LVU112
	jmp	_ZdlPv@PLT
.LVL32:
	.p2align 4,,10
	.p2align 3
.L11:
	.cfi_restore_state
	.loc 4 172 26 view .LVU113
.LBE566:
.LBE567:
.LBE568:
.LBE569:
.LBE570:
.LBE571:
.LBE582:
	.loc 1 6 56 view .LVU114
	addq	$8, %rsp
	.cfi_remember_state
	.cfi_def_cfa_offset 24
	popq	%rbx
	.cfi_def_cfa_offset 16
	popq	%rbp
	.cfi_def_cfa_offset 8
	ret
.LVL33:
.L14:
	.cfi_restore_state
	.loc 1 6 56 view .LVU115
	endbr64
.LBB583:
.LBB572:
.LBB573:
	.loc 5 804 19 view .LVU116
	movq	%rax, %rbp
	jmp	.L13
.LBE573:
.LBE572:
.LBE583:
	.globl	__gxx_personality_v0
	.section	.gcc_except_table,"a",@progbits
.LLSDA1129:
	.byte	0xff
	.byte	0xff
	.byte	0x1
	.uleb128 .LLSDACSE1129-.LLSDACSB1129
.LLSDACSB1129:
	.uleb128 .LEHB0-.LFB1129
	.uleb128 .LEHE0-.LEHB0
	.uleb128 .L14-.LFB1129
	.uleb128 0
.LLSDACSE1129:
	.text
	.cfi_endproc
	.section	.text.unlikely
	.cfi_startproc
	.cfi_personality 0x9b,DW.ref.__gxx_personality_v0
	.cfi_lsda 0x1b,.LLSDAC1129
	.type	_ZN4FormD2Ev.cold, @function
_ZN4FormD2Ev.cold:
.LFSB1129:
.LBB584:
.LBB578:
.LBB576:
.L13:
	.cfi_def_cfa_offset 32
	.cfi_offset 3, -24
	.cfi_offset 6, -16
.LVL34:
	.loc 5 804 19 view -0
.LBE576:
.LBI572:
	.loc 5 803 7 is_stmt 1 view .LVU118
.LBB577:
	.loc 5 804 19 is_stmt 0 view .LVU119
	movq	%rbx, %rdi
	call	_ZNSt7__cxx1112basic_stringIcSt11char_traitsIcESaIcEE10_M_disposeEv@PLT
.LVL35:
.LBB574:
.LBI574:
	.loc 5 181 14 is_stmt 1 view .LVU120
.LBB575:
.LBI575:
	.loc 3 184 7 view .LVU121
	.loc 3 184 7 is_stmt 0 view .LVU122
	movq	%rbp, %rdi
.LEHB1:
	call	_Unwind_Resume@PLT
.LVL36:
.LEHE1:
.LBE575:
.LBE574:
.LBE577:
.LBE578:
.LBE584:
	.cfi_endproc
.LFE1129:
	.section	.gcc_except_table
.LLSDAC1129:
	.byte	0xff
	.byte	0xff
	.byte	0x1
	.uleb128 .LLSDACSEC1129-.LLSDACSBC1129
.LLSDACSBC1129:
	.uleb128 .LEHB1-.LCOLDB4
	.uleb128 .LEHE1-.LEHB1
	.uleb128 0
	.uleb128 0
.LLSDACSEC1129:
	.section	.text.unlikely
	.text
	.size	_ZN4FormD2Ev, .-_ZN4FormD2Ev
	.section	.text.unlikely
	.size	_ZN4FormD2Ev.cold, .-_ZN4FormD2Ev.cold
.LCOLDE4:
	.text
.LHOTE4:
	.globl	_ZN4FormD1Ev
	.set	_ZN4FormD1Ev,_ZN4FormD2Ev
	.align 2
	.p2align 4
	.globl	_ZN4FormC2ERKS_
	.type	_ZN4FormC2ERKS_, @function
_ZN4FormC2ERKS_:
.LVL37:
.LFB1132:
	.loc 1 8 1 is_stmt 1 view -0
	.cfi_startproc
	.loc 1 8 1 is_stmt 0 view .LVU124
	endbr64
	pushq	%r13
	.cfi_def_cfa_offset 16
	.cfi_offset 13, -16
	pushq	%r12
	.cfi_def_cfa_offset 24
	.cfi_offset 12, -24
	pushq	%rbp
	.cfi_def_cfa_offset 32
	.cfi_offset 6, -32
	movq	%rsi, %rbp
	pushq	%rbx
	.cfi_def_cfa_offset 40
	.cfi_offset 3, -40
	movq	%rdi, %rbx
.LBB657:
.LBB658:
.LBB659:
.LBB660:
	.loc 5 232 29 view .LVU125
	addq	$16, %rdi
.LVL38:
	.loc 5 232 29 view .LVU126
.LBE660:
.LBE659:
.LBE658:
.LBE657:
	.loc 1 8 1 view .LVU127
	subq	$24, %rsp
	.cfi_def_cfa_offset 64
.LBB725:
.LBB722:
.LBB661:
.LBB662:
	.loc 5 1079 16 view .LVU128
	movq	8(%rsi), %r12
.LBE662:
.LBE661:
.LBE722:
.LBE725:
	.loc 1 8 1 view .LVU129
	movq	%fs:40, %rax
	movq	%rax, 8(%rsp)
	xorl	%eax, %eax
.LVL39:
.LBB726:
.LBB723:
.LBI658:
	.loc 5 547 7 is_stmt 1 view .LVU130
.LBB663:
.LBI663:
	.loc 5 341 7 view .LVU131
	.loc 5 341 7 is_stmt 0 view .LVU132
.LBE663:
.LBB664:
.LBI664:
	.loc 9 166 26 is_stmt 1 view .LVU133
	.loc 9 166 26 is_stmt 0 view .LVU134
.LBE664:
.LBB665:
.LBI659:
	.loc 5 227 7 is_stmt 1 view .LVU135
	.loc 5 227 7 is_stmt 0 view .LVU136
.LBE665:
.LBB666:
.LBI666:
	.loc 5 184 2 is_stmt 1 view .LVU137
.LBB667:
.LBB668:
.LBI668:
	.loc 3 167 7 view .LVU138
.LBB669:
.LBI669:
	.loc 4 92 7 view .LVU139
	.loc 4 92 7 is_stmt 0 view .LVU140
.LBE669:
.LBE668:
	.loc 5 185 25 discriminator 1 view .LVU141
	movq	%rdi, (%rbx)
.LVL40:
	.loc 5 185 25 discriminator 1 view .LVU142
.LBE667:
.LBE666:
.LBB670:
.LBI670:
	.loc 5 222 7 is_stmt 1 view .LVU143
.LBB671:
	.loc 5 223 28 is_stmt 0 view .LVU144
	movq	(%rsi), %r13
.LVL41:
	.loc 5 223 28 view .LVU145
.LBE671:
.LBE670:
.LBB672:
.LBI661:
	.loc 5 1078 7 is_stmt 1 view .LVU146
	.loc 5 1078 7 is_stmt 0 view .LVU147
.LBE672:
.LBB673:
.LBI673:
	.loc 5 222 7 is_stmt 1 view .LVU148
	.loc 5 222 7 is_stmt 0 view .LVU149
.LBE673:
.LBB674:
.LBI674:
	.loc 7 221 7 is_stmt 1 view .LVU150
.LBB675:
	.loc 7 225 12 is_stmt 0 discriminator 1 view .LVU151
	movq	%r12, (%rsp)
	.loc 7 227 2 view .LVU152
	cmpq	$15, %r12
	ja	.L26
.LVL42:
.LBB676:
.LBI676:
	.loc 7 239 13 is_stmt 1 view .LVU153
	.loc 7 239 13 is_stmt 0 view .LVU154
.LBE676:
.LBB677:
.LBI677:
	.loc 5 222 7 is_stmt 1 view .LVU155
	.loc 5 222 7 is_stmt 0 view .LVU156
.LBE677:
.LBB678:
.LBI678:
	.loc 5 477 7 is_stmt 1 view .LVU157
.LBB679:
.LBI679:
	.loc 5 425 7 view .LVU158
.LBB680:
	.loc 5 427 2 is_stmt 0 view .LVU159
	cmpq	$1, %r12
	jne	.L19
.LVL43:
.LBB681:
.LBI681:
	.loc 6 351 7 is_stmt 1 view .LVU160
.LBB682:
	.loc 6 358 2 view .LVU161
	.loc 6 358 9 is_stmt 0 view .LVU162
	movzbl	0(%r13), %eax
	.loc 6 358 7 view .LVU163
	movb	%al, 16(%rbx)
.LVL44:
.L20:
	.loc 6 358 7 view .LVU164
.LBE682:
.LBE681:
.LBE680:
.LBE679:
.LBE678:
.LBB698:
.LBI698:
	.loc 5 254 7 is_stmt 1 view .LVU165
.LBB699:
.LBB700:
.LBI700:
	.loc 5 217 7 view .LVU166
.LBB701:
	.loc 5 218 26 is_stmt 0 view .LVU167
	movq	%r12, 8(%rbx)
.LVL45:
	.loc 5 218 26 view .LVU168
.LBE701:
.LBE700:
.LBB702:
.LBI702:
	.loc 5 222 7 is_stmt 1 view .LVU169
	.loc 5 222 7 is_stmt 0 view .LVU170
.LBE702:
.LBB704:
.LBI704:
	.loc 6 351 7 is_stmt 1 view .LVU171
.LBB705:
	.loc 6 358 2 view .LVU172
	.loc 6 358 7 is_stmt 0 view .LVU173
	movb	$0, (%rdi,%r12)
.LVL46:
	.loc 6 358 7 view .LVU174
.LBE705:
.LBE704:
.LBE699:
.LBE698:
.LBB708:
.LBI708:
	.loc 7 242 4 is_stmt 1 view .LVU175
	.loc 7 242 4 is_stmt 0 view .LVU176
.LBE708:
.LBE675:
.LBE674:
.LBE723:
	.loc 1 8 51 discriminator 1 view .LVU177
	movzbl	32(%rbp), %eax
	movb	%al, 32(%rbx)
	.loc 1 9 20 view .LVU178
	movq	36(%rbp), %rax
	.loc 1 9 2 view .LVU179
	movq	%rax, 36(%rbx)
.LBE726:
	.loc 1 9 69 view .LVU180
	movq	8(%rsp), %rax
	subq	%fs:40, %rax
	jne	.L27
	addq	$24, %rsp
	.cfi_remember_state
	.cfi_def_cfa_offset 40
	popq	%rbx
	.cfi_def_cfa_offset 32
.LVL47:
	.loc 1 9 69 view .LVU181
	popq	%rbp
	.cfi_def_cfa_offset 24
.LVL48:
	.loc 1 9 69 view .LVU182
	popq	%r12
	.cfi_def_cfa_offset 16
	popq	%r13
	.cfi_def_cfa_offset 8
	ret
.LVL49:
	.p2align 4,,10
	.p2align 3
.L19:
	.cfi_restore_state
.LBB727:
.LBB724:
.LBB721:
.LBB720:
.LBB709:
.LBB695:
.LBB692:
.LBB683:
.LBI683:
	.loc 5 425 7 is_stmt 1 view .LVU183
.LBB684:
.LBI684:
	.loc 6 427 7 view .LVU184
.LBB685:
	.loc 6 429 2 view .LVU185
	testq	%r12, %r12
	je	.L20
	jmp	.L18
.LVL50:
	.p2align 4,,10
	.p2align 3
.L26:
	.loc 6 429 2 is_stmt 0 view .LVU186
.LBE685:
.LBE684:
.LBE683:
.LBE692:
.LBE695:
.LBE709:
	.loc 7 229 13 view .LVU187
	movq	%rbx, %rdi
	movq	%rsp, %rsi
.LVL51:
	.loc 7 229 13 view .LVU188
	xorl	%edx, %edx
	call	_ZNSt7__cxx1112basic_stringIcSt11char_traitsIcESaIcEE9_M_createERmm@PLT
.LVL52:
.LBB710:
.LBB711:
	.loc 5 213 26 view .LVU189
	movq	%rax, (%rbx)
.LBE711:
.LBE710:
	.loc 7 229 13 view .LVU190
	movq	%rax, %rdi
.LVL53:
.LBB712:
.LBI710:
	.loc 5 212 7 is_stmt 1 view .LVU191
	.loc 5 212 7 is_stmt 0 view .LVU192
.LBE712:
.LBB713:
.LBI713:
	.loc 5 249 7 is_stmt 1 view .LVU193
.LBB714:
	.loc 5 250 31 is_stmt 0 view .LVU194
	movq	(%rsp), %rax
	movq	%rax, 16(%rbx)
.LVL54:
	.loc 5 250 31 view .LVU195
.LBE714:
.LBE713:
.LBB715:
	.loc 7 239 13 is_stmt 1 view .LVU196
	.loc 7 239 13 is_stmt 0 view .LVU197
.LBE715:
.LBB716:
	.loc 5 222 7 is_stmt 1 view .LVU198
	.loc 5 222 7 is_stmt 0 view .LVU199
.LBE716:
.LBB717:
	.loc 5 477 7 is_stmt 1 view .LVU200
.LBB696:
	.loc 5 425 7 view .LVU201
.LBB693:
.LBB690:
	.loc 5 425 7 view .LVU202
.LBB688:
	.loc 6 427 7 view .LVU203
.LBB686:
	.loc 6 429 2 view .LVU204
.L18:
	.loc 6 435 2 view .LVU205
	.loc 6 435 49 is_stmt 0 view .LVU206
	movq	%r12, %rdx
	movq	%r13, %rsi
	call	memcpy@PLT
.LVL55:
	.loc 6 435 49 view .LVU207
.LBE686:
.LBE688:
.LBE690:
.LBE693:
.LBE696:
.LBE717:
	.loc 7 251 15 view .LVU208
	movq	(%rsp), %r12
.LVL56:
.LBB718:
.LBB707:
.LBB706:
.LBB703:
	.loc 5 223 28 view .LVU209
	movq	(%rbx), %rdi
.LBE703:
.LBE706:
.LBE707:
.LBE718:
.LBB719:
.LBB697:
.LBB694:
.LBB691:
.LBB689:
.LBB687:
	.loc 6 435 66 view .LVU210
	jmp	.L20
.LVL57:
.L27:
	.loc 6 435 66 view .LVU211
.LBE687:
.LBE689:
.LBE691:
.LBE694:
.LBE697:
.LBE719:
.LBE720:
.LBE721:
.LBE724:
.LBE727:
	.loc 1 9 69 view .LVU212
	call	__stack_chk_fail@PLT
.LVL58:
	.cfi_endproc
.LFE1132:
	.size	_ZN4FormC2ERKS_, .-_ZN4FormC2ERKS_
	.globl	_ZN4FormC1ERKS_
	.set	_ZN4FormC1ERKS_,_ZN4FormC2ERKS_
	.section	.text.unlikely
	.align 2
.LCOLDB5:
	.text
.LHOTB5:
	.align 2
	.p2align 4
	.globl	_ZN4FormC2ERKNSt7__cxx1112basic_stringIcSt11char_traitsIcESaIcEEEii
	.type	_ZN4FormC2ERKNSt7__cxx1112basic_stringIcSt11char_traitsIcESaIcEEEii, @function
_ZN4FormC2ERKNSt7__cxx1112basic_stringIcSt11char_traitsIcESaIcEEEii:
.LVL59:
.LFB1158:
	.loc 1 11 1 is_stmt 1 view -0
	.cfi_startproc
	.cfi_personality 0x9b,DW.ref.__gxx_personality_v0
	.cfi_lsda 0x1b,.LLSDA1158
	.loc 1 11 1 is_stmt 0 view .LVU214
	endbr64
	pushq	%r14
	.cfi_def_cfa_offset 16
	.cfi_offset 14, -16
	pushq	%r13
	.cfi_def_cfa_offset 24
	.cfi_offset 13, -24
	movl	%edx, %r13d
	pushq	%r12
	.cfi_def_cfa_offset 32
	.cfi_offset 12, -32
	movl	%ecx, %r12d
	pushq	%rbp
	.cfi_def_cfa_offset 40
	.cfi_offset 6, -40
	pushq	%rbx
	.cfi_def_cfa_offset 48
	.cfi_offset 3, -48
	movq	%rdi, %rbx
.LBB793:
.LBB794:
.LBB795:
.LBB796:
	.loc 5 232 29 view .LVU215
	addq	$16, %rdi
.LVL60:
	.loc 5 232 29 view .LVU216
.LBE796:
.LBE795:
.LBE794:
.LBE793:
	.loc 1 11 1 view .LVU217
	subq	$16, %rsp
	.cfi_def_cfa_offset 64
.LBB872:
.LBB858:
.LBB797:
.LBB798:
	.loc 5 1079 16 view .LVU218
	movq	8(%rsi), %rbp
.LBE798:
.LBE797:
.LBE858:
.LBE872:
	.loc 1 11 1 view .LVU219
	movq	%fs:40, %rax
	movq	%rax, 8(%rsp)
	xorl	%eax, %eax
.LVL61:
.LBB873:
.LBB859:
.LBI794:
	.loc 5 547 7 is_stmt 1 view .LVU220
.LBB799:
.LBI799:
	.loc 5 341 7 view .LVU221
	.loc 5 341 7 is_stmt 0 view .LVU222
.LBE799:
.LBB800:
.LBI800:
	.loc 9 166 26 is_stmt 1 view .LVU223
	.loc 9 166 26 is_stmt 0 view .LVU224
.LBE800:
.LBB801:
.LBI795:
	.loc 5 227 7 is_stmt 1 view .LVU225
	.loc 5 227 7 is_stmt 0 view .LVU226
.LBE801:
.LBB802:
.LBI802:
	.loc 5 184 2 is_stmt 1 view .LVU227
.LBB803:
.LBB804:
.LBI804:
	.loc 3 167 7 view .LVU228
.LBB805:
.LBI805:
	.loc 4 92 7 view .LVU229
	.loc 4 92 7 is_stmt 0 view .LVU230
.LBE805:
.LBE804:
	.loc 5 185 25 discriminator 1 view .LVU231
	movq	%rdi, (%rbx)
.LVL62:
	.loc 5 185 25 discriminator 1 view .LVU232
.LBE803:
.LBE802:
.LBB806:
.LBI806:
	.loc 5 222 7 is_stmt 1 view .LVU233
.LBB807:
	.loc 5 223 28 is_stmt 0 view .LVU234
	movq	(%rsi), %r14
.LVL63:
	.loc 5 223 28 view .LVU235
.LBE807:
.LBE806:
.LBB808:
.LBI797:
	.loc 5 1078 7 is_stmt 1 view .LVU236
	.loc 5 1078 7 is_stmt 0 view .LVU237
.LBE808:
.LBB809:
.LBI809:
	.loc 5 222 7 is_stmt 1 view .LVU238
	.loc 5 222 7 is_stmt 0 view .LVU239
.LBE809:
.LBB810:
.LBI810:
	.loc 7 221 7 is_stmt 1 view .LVU240
.LBB811:
	.loc 7 225 12 is_stmt 0 discriminator 1 view .LVU241
	movq	%rbp, (%rsp)
	.loc 7 227 2 view .LVU242
	cmpq	$15, %rbp
	ja	.L49
.LVL64:
.LBB812:
.LBI812:
	.loc 7 239 13 is_stmt 1 view .LVU243
	.loc 7 239 13 is_stmt 0 view .LVU244
.LBE812:
.LBB813:
.LBI813:
	.loc 5 222 7 is_stmt 1 view .LVU245
	.loc 5 222 7 is_stmt 0 view .LVU246
.LBE813:
.LBB814:
.LBI814:
	.loc 5 477 7 is_stmt 1 view .LVU247
.LBB815:
.LBI815:
	.loc 5 425 7 view .LVU248
.LBB816:
	.loc 5 427 2 is_stmt 0 view .LVU249
	cmpq	$1, %rbp
	jne	.L31
.LVL65:
.LBB817:
.LBI817:
	.loc 6 351 7 is_stmt 1 view .LVU250
.LBB818:
	.loc 6 358 2 view .LVU251
	.loc 6 358 9 is_stmt 0 view .LVU252
	movzbl	(%r14), %eax
	.loc 6 358 7 view .LVU253
	movb	%al, 16(%rbx)
.LVL66:
.L32:
	.loc 6 358 7 view .LVU254
.LBE818:
.LBE817:
.LBE816:
.LBE815:
.LBE814:
.LBB834:
.LBI834:
	.loc 5 254 7 is_stmt 1 view .LVU255
.LBB835:
.LBB836:
.LBI836:
	.loc 5 217 7 view .LVU256
.LBB837:
	.loc 5 218 26 is_stmt 0 view .LVU257
	movq	%rbp, 8(%rbx)
.LVL67:
	.loc 5 218 26 view .LVU258
.LBE837:
.LBE836:
.LBB838:
.LBI838:
	.loc 5 222 7 is_stmt 1 view .LVU259
	.loc 5 222 7 is_stmt 0 view .LVU260
.LBE838:
.LBB840:
.LBI840:
	.loc 6 351 7 is_stmt 1 view .LVU261
.LBB841:
	.loc 6 358 2 view .LVU262
	.loc 6 358 7 is_stmt 0 view .LVU263
	movb	$0, (%rdi,%rbp)
.LVL68:
	.loc 6 358 7 view .LVU264
.LBE841:
.LBE840:
.LBE835:
.LBE834:
.LBB844:
.LBI844:
	.loc 7 242 4 is_stmt 1 view .LVU265
	.loc 7 242 4 is_stmt 0 view .LVU266
.LBE844:
.LBE811:
.LBE810:
.LBE859:
	.loc 1 11 87 discriminator 1 view .LVU267
	movb	$0, 32(%rbx)
	.loc 1 11 101 discriminator 1 view .LVU268
	movl	%r13d, 36(%rbx)
	.loc 1 11 128 discriminator 1 view .LVU269
	movl	%r12d, 40(%rbx)
	.loc 1 13 2 is_stmt 1 view .LVU270
	.loc 1 13 22 is_stmt 0 discriminator 1 view .LVU271
	testl	%r13d, %r13d
	jle	.L43
	.loc 1 13 22 discriminator 1 view .LVU272
	testl	%r12d, %r12d
	jle	.L43
	.loc 1 15 7 is_stmt 1 view .LVU273
	.loc 1 15 29 is_stmt 0 discriminator 1 view .LVU274
	cmpl	$150, %r13d
	jg	.L44
	cmpl	$150, %r12d
	jg	.L44
.LBE873:
	.loc 1 17 1 view .LVU275
	movq	8(%rsp), %rax
	subq	%fs:40, %rax
	jne	.L50
	addq	$16, %rsp
	.cfi_remember_state
	.cfi_def_cfa_offset 48
	popq	%rbx
	.cfi_def_cfa_offset 40
.LVL69:
	.loc 1 17 1 view .LVU276
	popq	%rbp
	.cfi_def_cfa_offset 32
	popq	%r12
	.cfi_def_cfa_offset 24
.LVL70:
	.loc 1 17 1 view .LVU277
	popq	%r13
	.cfi_def_cfa_offset 16
.LVL71:
	.loc 1 17 1 view .LVU278
	popq	%r14
	.cfi_def_cfa_offset 8
	ret
.LVL72:
	.p2align 4,,10
	.p2align 3
.L31:
	.cfi_restore_state
.LBB874:
.LBB860:
.LBB857:
.LBB856:
.LBB845:
.LBB831:
.LBB828:
.LBB819:
.LBI819:
	.loc 5 425 7 is_stmt 1 view .LVU279
.LBB820:
.LBI820:
	.loc 6 427 7 view .LVU280
.LBB821:
	.loc 6 429 2 view .LVU281
	testq	%rbp, %rbp
	je	.L32
	jmp	.L30
.LVL73:
	.p2align 4,,10
	.p2align 3
.L49:
	.loc 6 429 2 is_stmt 0 view .LVU282
.LBE821:
.LBE820:
.LBE819:
.LBE828:
.LBE831:
.LBE845:
	.loc 7 229 13 view .LVU283
	movq	%rbx, %rdi
	movq	%rsp, %rsi
.LVL74:
	.loc 7 229 13 view .LVU284
	xorl	%edx, %edx
.LVL75:
.LEHB2:
	.loc 7 229 13 view .LVU285
	call	_ZNSt7__cxx1112basic_stringIcSt11char_traitsIcESaIcEE9_M_createERmm@PLT
.LVL76:
.LEHE2:
.LBB846:
.LBB847:
	.loc 5 213 26 view .LVU286
	movq	%rax, (%rbx)
.LBE847:
.LBE846:
	.loc 7 229 13 view .LVU287
	movq	%rax, %rdi
.LVL77:
.LBB848:
.LBI846:
	.loc 5 212 7 is_stmt 1 view .LVU288
	.loc 5 212 7 is_stmt 0 view .LVU289
.LBE848:
.LBB849:
.LBI849:
	.loc 5 249 7 is_stmt 1 view .LVU290
.LBB850:
	.loc 5 250 31 is_stmt 0 view .LVU291
	movq	(%rsp), %rax
	movq	%rax, 16(%rbx)
.LVL78:
	.loc 5 250 31 view .LVU292
.LBE850:
.LBE849:
.LBB851:
	.loc 7 239 13 is_stmt 1 view .LVU293
	.loc 7 239 13 is_stmt 0 view .LVU294
.LBE851:
.LBB852:
	.loc 5 222 7 is_stmt 1 view .LVU295
	.loc 5 222 7 is_stmt 0 view .LVU296
.LBE852:
.LBB853:
	.loc 5 477 7 is_stmt 1 view .LVU297
.LBB832:
	.loc 5 425 7 view .LVU298
.LBB829:
.LBB826:
	.loc 5 425 7 view .LVU299
.LBB824:
	.loc 6 427 7 view .LVU300
.LBB822:
	.loc 6 429 2 view .LVU301
.L30:
	.loc 6 435 2 view .LVU302
	.loc 6 435 49 is_stmt 0 view .LVU303
	movq	%rbp, %rdx
	movq	%r14, %rsi
	call	memcpy@PLT
.LVL79:
	.loc 6 435 49 view .LVU304
.LBE822:
.LBE824:
.LBE826:
.LBE829:
.LBE832:
.LBE853:
	.loc 7 251 15 view .LVU305
	movq	(%rsp), %rbp
.LVL80:
.LBB854:
.LBB843:
.LBB842:
.LBB839:
	.loc 5 223 28 view .LVU306
	movq	(%rbx), %rdi
.LBE839:
.LBE842:
.LBE843:
.LBE854:
.LBB855:
.LBB833:
.LBB830:
.LBB827:
.LBB825:
.LBB823:
	.loc 6 435 66 view .LVU307
	jmp	.L32
.LVL81:
.L50:
	.loc 6 435 66 view .LVU308
.LBE823:
.LBE825:
.LBE827:
.LBE830:
.LBE833:
.LBE855:
.LBE856:
.LBE857:
.LBE860:
.LBE874:
	.loc 1 17 1 view .LVU309
	call	__stack_chk_fail@PLT
.LVL82:
	.loc 1 17 1 view .LVU310
	.section	.gcc_except_table
.LLSDA1158:
	.byte	0xff
	.byte	0xff
	.byte	0x1
	.uleb128 .LLSDACSE1158-.LLSDACSB1158
.LLSDACSB1158:
	.uleb128 .LEHB2-.LFB1158
	.uleb128 .LEHE2-.LEHB2
	.uleb128 0
	.uleb128 0
.LLSDACSE1158:
	.text
	.cfi_endproc
	.section	.text.unlikely
	.cfi_startproc
	.cfi_personality 0x9b,DW.ref.__gxx_personality_v0
	.cfi_lsda 0x1b,.LLSDAC1158
	.type	_ZN4FormC2ERKNSt7__cxx1112basic_stringIcSt11char_traitsIcESaIcEEEii.cold, @function
_ZN4FormC2ERKNSt7__cxx1112basic_stringIcSt11char_traitsIcESaIcEEEii.cold:
.LFSB1158:
.L43:
	.cfi_def_cfa_offset 64
	.cfi_offset 3, -48
	.cfi_offset 6, -40
	.cfi_offset 12, -32
	.cfi_offset 13, -24
	.cfi_offset 14, -16
.LBB875:
	.loc 1 14 3 is_stmt 1 view .LVU123
	.loc 1 14 37 is_stmt 0 view .LVU312
	movl	$8, %edi
	call	__cxa_allocate_exception@PLT
.LVL83:
	movq	%rax, %rdi
.LVL84:
.LBB861:
.LBI861:
	.loc 2 31 8 is_stmt 1 view .LVU313
.LBB862:
.LBB863:
.LBI863:
	.file 10 "/usr/include/c++/13/bits/exception.h"
	.loc 10 62 5 view .LVU314
	.loc 10 62 5 is_stmt 0 view .LVU315
.LBE863:
	.loc 2 31 8 discriminator 1 view .LVU316
	leaq	16+_ZTVN4Form21GradeTooHighExceptionE(%rip), %rax
.LVL85:
	.loc 2 31 8 discriminator 1 view .LVU317
	movq	%rax, (%rdi)
.LVL86:
	.loc 2 31 8 discriminator 1 view .LVU318
.LBE862:
.LBE861:
	.loc 1 14 37 discriminator 2 view .LVU319
	movq	8(%rsp), %rax
	subq	%fs:40, %rax
	jne	.L51
	leaq	_ZN4Form21GradeTooHighExceptionD1Ev(%rip), %rdx
	leaq	_ZTIN4Form21GradeTooHighExceptionE(%rip), %rsi
.LEHB3:
	call	__cxa_throw@PLT
.LVL87:
.L44:
	.loc 1 16 3 is_stmt 1 view .LVU320
	.loc 1 16 36 is_stmt 0 view .LVU321
	movl	$8, %edi
	call	__cxa_allocate_exception@PLT
.LVL88:
	movq	%rax, %rdi
.LVL89:
.LBB864:
.LBI864:
	.loc 2 35 8 is_stmt 1 view .LVU322
.LBB865:
.LBB866:
.LBI866:
	.loc 10 62 5 view .LVU323
	.loc 10 62 5 is_stmt 0 view .LVU324
.LBE866:
	.loc 2 35 8 discriminator 1 view .LVU325
	leaq	16+_ZTVN4Form20GradeTooLowExceptionE(%rip), %rax
.LVL90:
	.loc 2 35 8 discriminator 1 view .LVU326
	movq	%rax, (%rdi)
.LVL91:
	.loc 2 35 8 discriminator 1 view .LVU327
.LBE865:
.LBE864:
	.loc 1 16 36 discriminator 2 view .LVU328
	movq	8(%rsp), %rax
	subq	%fs:40, %rax
	jne	.L52
	leaq	_ZN4Form20GradeTooLowExceptionD1Ev(%rip), %rdx
	leaq	_ZTIN4Form20GradeTooLowExceptionE(%rip), %rsi
	call	__cxa_throw@PLT
.LVL92:
.LEHE3:
.L51:
	.loc 1 14 37 discriminator 2 view .LVU329
	call	__stack_chk_fail@PLT
.LVL93:
.L52:
	.loc 1 16 36 discriminator 2 view .LVU330
	call	__stack_chk_fail@PLT
.LVL94:
.L42:
	endbr64
.LBB867:
.LBB868:
	.loc 5 804 19 view .LVU331
	movq	%rbx, %rdi
	movq	%rax, %rbp
.LVL95:
	.loc 5 804 19 view .LVU332
.LBE868:
.LBI867:
	.loc 5 803 7 is_stmt 1 view .LVU333
.LBB871:
	.loc 5 804 19 is_stmt 0 view .LVU334
	call	_ZNSt7__cxx1112basic_stringIcSt11char_traitsIcESaIcEE10_M_disposeEv@PLT
.LVL96:
.LBB869:
.LBI869:
	.loc 5 181 14 is_stmt 1 view .LVU335
.LBB870:
.LBI870:
	.loc 3 184 7 view .LVU336
	.loc 3 184 7 is_stmt 0 view .LVU337
	movq	8(%rsp), %rax
	subq	%fs:40, %rax
	jne	.L53
	movq	%rbp, %rdi
.LEHB4:
	call	_Unwind_Resume@PLT
.LVL97:
.LEHE4:
.L53:
	call	__stack_chk_fail@PLT
.LVL98:
.LBE870:
.LBE869:
.LBE871:
.LBE867:
.LBE875:
	.cfi_endproc
.LFE1158:
	.section	.gcc_except_table
.LLSDAC1158:
	.byte	0xff
	.byte	0xff
	.byte	0x1
	.uleb128 .LLSDACSEC1158-.LLSDACSBC1158
.LLSDACSBC1158:
	.uleb128 .LEHB3-.LCOLDB5
	.uleb128 .LEHE3-.LEHB3
	.uleb128 .L42-.LCOLDB5
	.uleb128 0
	.uleb128 .LEHB4-.LCOLDB5
	.uleb128 .LEHE4-.LEHB4
	.uleb128 0
	.uleb128 0
.LLSDACSEC1158:
	.section	.text.unlikely
	.text
	.size	_ZN4FormC2ERKNSt7__cxx1112basic_stringIcSt11char_traitsIcESaIcEEEii, .-_ZN4FormC2ERKNSt7__cxx1112basic_stringIcSt11char_traitsIcESaIcEEEii
	.section	.text.unlikely
	.size	_ZN4FormC2ERKNSt7__cxx1112basic_stringIcSt11char_traitsIcESaIcEEEii.cold, .-_ZN4FormC2ERKNSt7__cxx1112basic_stringIcSt11char_traitsIcESaIcEEEii.cold
.LCOLDE5:
	.text
.LHOTE5:
	.globl	_ZN4FormC1ERKNSt7__cxx1112basic_stringIcSt11char_traitsIcESaIcEEEii
	.set	_ZN4FormC1ERKNSt7__cxx1112basic_stringIcSt11char_traitsIcESaIcEEEii,_ZN4FormC2ERKNSt7__cxx1112basic_stringIcSt11char_traitsIcESaIcEEEii
	.align 2
	.p2align 4
	.globl	_ZN4FormaSERKS_
	.type	_ZN4FormaSERKS_, @function
_ZN4FormaSERKS_:
.LVL99:
.LFB1160:
	.loc 1 20 1 is_stmt 1 view -0
	.cfi_startproc
	.loc 1 20 1 is_stmt 0 view .LVU339
	endbr64
	.loc 1 21 2 is_stmt 1 view .LVU340
	.loc 1 20 1 is_stmt 0 view .LVU341
	movq	%rdi, %rax
	.loc 1 21 2 view .LVU342
	cmpq	%rsi, %rdi
	je	.L55
	.loc 1 23 3 is_stmt 1 view .LVU343
	.loc 1 23 17 is_stmt 0 view .LVU344
	movzbl	32(%rsi), %edx
	.loc 1 23 9 view .LVU345
	movb	%dl, 32(%rdi)
.L55:
	.loc 1 25 2 is_stmt 1 view .LVU346
	.loc 1 26 1 is_stmt 0 view .LVU347
	ret
	.cfi_endproc
.LFE1160:
	.size	_ZN4FormaSERKS_, .-_ZN4FormaSERKS_
	.align 2
	.p2align 4
	.globl	_ZNK4Form12getGrade_lvlEv
	.type	_ZNK4Form12getGrade_lvlEv, @function
_ZNK4Form12getGrade_lvlEv:
.LVL100:
.LFB1161:
	.loc 1 29 1 is_stmt 1 view -0
	.cfi_startproc
	.loc 1 29 1 is_stmt 0 view .LVU349
	endbr64
	.loc 1 30 2 is_stmt 1 view .LVU350
	.loc 1 30 23 is_stmt 0 discriminator 1 view .LVU351
	movl	40(%rdi), %eax
	.loc 1 31 1 view .LVU352
	ret
	.cfi_endproc
.LFE1161:
	.size	_ZNK4Form12getGrade_lvlEv, .-_ZNK4Form12getGrade_lvlEv
	.align 2
	.p2align 4
	.globl	_ZNK4Form14getGrade_signeEv
	.type	_ZNK4Form14getGrade_signeEv, @function
_ZNK4Form14getGrade_signeEv:
.LVL101:
.LFB1162:
	.loc 1 34 1 is_stmt 1 view -0
	.cfi_startproc
	.loc 1 34 1 is_stmt 0 view .LVU354
	endbr64
	.loc 1 35 2 is_stmt 1 view .LVU355
	.loc 1 35 9 is_stmt 0 discriminator 1 view .LVU356
	movl	36(%rdi), %eax
	.loc 1 36 1 view .LVU357
	ret
	.cfi_endproc
.LFE1162:
	.size	_ZNK4Form14getGrade_signeEv, .-_ZNK4Form14getGrade_signeEv
	.align 2
	.p2align 4
	.globl	_ZNK4Form7getNameB5cxx11Ev
	.type	_ZNK4Form7getNameB5cxx11Ev, @function
_ZNK4Form7getNameB5cxx11Ev:
.LVL102:
.LFB1163:
	.loc 1 39 1 is_stmt 1 view -0
	.cfi_startproc
	.loc 1 39 1 is_stmt 0 view .LVU359
	endbr64
	pushq	%r12
	.cfi_def_cfa_offset 16
	.cfi_offset 12, -16
	pushq	%rbp
	.cfi_def_cfa_offset 24
	.cfi_offset 6, -24
	pushq	%rbx
	.cfi_def_cfa_offset 32
	.cfi_offset 3, -32
	movq	%rdi, %rbx
.LBB931:
.LBB932:
.LBB933:
	.loc 5 232 29 view .LVU360
	addq	$16, %rdi
.LVL103:
	.loc 5 232 29 view .LVU361
.LBE933:
.LBE932:
.LBE931:
	.loc 1 39 1 view .LVU362
	subq	$16, %rsp
	.cfi_def_cfa_offset 48
.LBB995:
.LBB934:
.LBB935:
	.loc 5 1079 16 view .LVU363
	movq	8(%rsi), %rbp
.LBE935:
.LBE934:
.LBE995:
	.loc 1 39 1 view .LVU364
	movq	%fs:40, %rax
	movq	%rax, 8(%rsp)
	xorl	%eax, %eax
	.loc 1 40 2 is_stmt 1 view .LVU365
.LVL104:
.LBB996:
.LBI931:
	.loc 5 547 7 view .LVU366
.LBB936:
.LBI936:
	.loc 5 341 7 view .LVU367
	.loc 5 341 7 is_stmt 0 view .LVU368
.LBE936:
.LBB937:
.LBI937:
	.loc 9 166 26 is_stmt 1 view .LVU369
	.loc 9 166 26 is_stmt 0 view .LVU370
.LBE937:
.LBB938:
.LBI932:
	.loc 5 227 7 is_stmt 1 view .LVU371
	.loc 5 227 7 is_stmt 0 view .LVU372
.LBE938:
.LBB939:
.LBI939:
	.loc 5 184 2 is_stmt 1 view .LVU373
.LBB940:
.LBB941:
.LBI941:
	.loc 3 167 7 view .LVU374
.LBB942:
.LBI942:
	.loc 4 92 7 view .LVU375
	.loc 4 92 7 is_stmt 0 view .LVU376
.LBE942:
.LBE941:
	.loc 5 185 25 discriminator 1 view .LVU377
	movq	%rdi, (%rbx)
.LVL105:
	.loc 5 185 25 discriminator 1 view .LVU378
.LBE940:
.LBE939:
.LBB943:
.LBI943:
	.loc 5 222 7 is_stmt 1 view .LVU379
.LBB944:
	.loc 5 223 28 is_stmt 0 view .LVU380
	movq	(%rsi), %r12
.LVL106:
	.loc 5 223 28 view .LVU381
.LBE944:
.LBE943:
.LBB945:
.LBI934:
	.loc 5 1078 7 is_stmt 1 view .LVU382
	.loc 5 1078 7 is_stmt 0 view .LVU383
.LBE945:
.LBB946:
.LBI946:
	.loc 5 222 7 is_stmt 1 view .LVU384
	.loc 5 222 7 is_stmt 0 view .LVU385
.LBE946:
.LBB947:
.LBI947:
	.loc 7 221 7 is_stmt 1 view .LVU386
.LBB948:
	.loc 7 225 12 is_stmt 0 discriminator 1 view .LVU387
	movq	%rbp, (%rsp)
	.loc 7 227 2 view .LVU388
	cmpq	$15, %rbp
	ja	.L68
.LVL107:
.LBB949:
.LBI949:
	.loc 7 239 13 is_stmt 1 view .LVU389
	.loc 7 239 13 is_stmt 0 view .LVU390
.LBE949:
.LBB950:
.LBI950:
	.loc 5 222 7 is_stmt 1 view .LVU391
	.loc 5 222 7 is_stmt 0 view .LVU392
.LBE950:
.LBB951:
.LBI951:
	.loc 5 477 7 is_stmt 1 view .LVU393
.LBB952:
.LBI952:
	.loc 5 425 7 view .LVU394
.LBB953:
	.loc 5 427 2 is_stmt 0 view .LVU395
	cmpq	$1, %rbp
	jne	.L61
.LVL108:
.LBB954:
.LBI954:
	.loc 6 351 7 is_stmt 1 view .LVU396
.LBB955:
	.loc 6 358 2 view .LVU397
	.loc 6 358 9 is_stmt 0 view .LVU398
	movzbl	(%r12), %eax
	.loc 6 358 7 view .LVU399
	movb	%al, 16(%rbx)
.LVL109:
.L62:
	.loc 6 358 7 view .LVU400
.LBE955:
.LBE954:
.LBE953:
.LBE952:
.LBE951:
.LBB971:
.LBI971:
	.loc 5 254 7 is_stmt 1 view .LVU401
.LBB972:
.LBB973:
.LBI973:
	.loc 5 217 7 view .LVU402
.LBB974:
	.loc 5 218 26 is_stmt 0 view .LVU403
	movq	%rbp, 8(%rbx)
.LVL110:
	.loc 5 218 26 view .LVU404
.LBE974:
.LBE973:
.LBB975:
.LBI975:
	.loc 5 222 7 is_stmt 1 view .LVU405
	.loc 5 222 7 is_stmt 0 view .LVU406
.LBE975:
.LBB977:
.LBI977:
	.loc 6 351 7 is_stmt 1 view .LVU407
.LBB978:
	.loc 6 358 2 view .LVU408
	.loc 6 358 7 is_stmt 0 view .LVU409
	movb	$0, (%rdi,%rbp)
.LVL111:
	.loc 6 358 7 view .LVU410
.LBE978:
.LBE977:
.LBE972:
.LBE971:
.LBB981:
.LBI981:
	.loc 7 242 4 is_stmt 1 view .LVU411
	.loc 7 242 4 is_stmt 0 view .LVU412
.LBE981:
.LBE948:
.LBE947:
.LBE996:
	.loc 1 41 1 view .LVU413
	movq	8(%rsp), %rax
	subq	%fs:40, %rax
	jne	.L69
	addq	$16, %rsp
	.cfi_remember_state
	.cfi_def_cfa_offset 32
	movq	%rbx, %rax
	popq	%rbx
	.cfi_def_cfa_offset 24
.LVL112:
	.loc 1 41 1 view .LVU414
	popq	%rbp
	.cfi_def_cfa_offset 16
	popq	%r12
	.cfi_def_cfa_offset 8
	ret
.LVL113:
	.p2align 4,,10
	.p2align 3
.L61:
	.cfi_restore_state
.LBB997:
.LBB994:
.LBB993:
.LBB982:
.LBB968:
.LBB965:
.LBB956:
.LBI956:
	.loc 5 425 7 is_stmt 1 view .LVU415
.LBB957:
.LBI957:
	.loc 6 427 7 view .LVU416
.LBB958:
	.loc 6 429 2 view .LVU417
	testq	%rbp, %rbp
	je	.L62
	jmp	.L60
.LVL114:
	.p2align 4,,10
	.p2align 3
.L68:
	.loc 6 429 2 is_stmt 0 view .LVU418
.LBE958:
.LBE957:
.LBE956:
.LBE965:
.LBE968:
.LBE982:
	.loc 7 229 13 view .LVU419
	movq	%rbx, %rdi
	movq	%rsp, %rsi
.LVL115:
	.loc 7 229 13 view .LVU420
	xorl	%edx, %edx
	call	_ZNSt7__cxx1112basic_stringIcSt11char_traitsIcESaIcEE9_M_createERmm@PLT
.LVL116:
.LBB983:
.LBB984:
	.loc 5 213 26 view .LVU421
	movq	%rax, (%rbx)
.LBE984:
.LBE983:
	.loc 7 229 13 view .LVU422
	movq	%rax, %rdi
.LVL117:
.LBB985:
.LBI983:
	.loc 5 212 7 is_stmt 1 view .LVU423
	.loc 5 212 7 is_stmt 0 view .LVU424
.LBE985:
.LBB986:
.LBI986:
	.loc 5 249 7 is_stmt 1 view .LVU425
.LBB987:
	.loc 5 250 31 is_stmt 0 view .LVU426
	movq	(%rsp), %rax
	movq	%rax, 16(%rbx)
.LVL118:
	.loc 5 250 31 view .LVU427
.LBE987:
.LBE986:
.LBB988:
	.loc 7 239 13 is_stmt 1 view .LVU428
	.loc 7 239 13 is_stmt 0 view .LVU429
.LBE988:
.LBB989:
	.loc 5 222 7 is_stmt 1 view .LVU430
	.loc 5 222 7 is_stmt 0 view .LVU431
.LBE989:
.LBB990:
	.loc 5 477 7 is_stmt 1 view .LVU432
.LBB969:
	.loc 5 425 7 view .LVU433
.LBB966:
.LBB963:
	.loc 5 425 7 view .LVU434
.LBB961:
	.loc 6 427 7 view .LVU435
.LBB959:
	.loc 6 429 2 view .LVU436
.L60:
	.loc 6 435 2 view .LVU437
	.loc 6 435 49 is_stmt 0 view .LVU438
	movq	%rbp, %rdx
	movq	%r12, %rsi
	call	memcpy@PLT
.LVL119:
	.loc 6 435 49 view .LVU439
.LBE959:
.LBE961:
.LBE963:
.LBE966:
.LBE969:
.LBE990:
	.loc 7 251 15 view .LVU440
	movq	(%rsp), %rbp
.LVL120:
.LBB991:
.LBB980:
.LBB979:
.LBB976:
	.loc 5 223 28 view .LVU441
	movq	(%rbx), %rdi
.LBE976:
.LBE979:
.LBE980:
.LBE991:
.LBB992:
.LBB970:
.LBB967:
.LBB964:
.LBB962:
.LBB960:
	.loc 6 435 66 view .LVU442
	jmp	.L62
.LVL121:
.L69:
	.loc 6 435 66 view .LVU443
.LBE960:
.LBE962:
.LBE964:
.LBE967:
.LBE970:
.LBE992:
.LBE993:
.LBE994:
.LBE997:
	.loc 1 41 1 view .LVU444
	call	__stack_chk_fail@PLT
.LVL122:
	.cfi_endproc
.LFE1163:
	.size	_ZNK4Form7getNameB5cxx11Ev, .-_ZNK4Form7getNameB5cxx11Ev
	.align 2
	.p2align 4
	.globl	_ZNK4Form8getSigneEv
	.type	_ZNK4Form8getSigneEv, @function
_ZNK4Form8getSigneEv:
.LVL123:
.LFB1164:
	.loc 1 44 1 is_stmt 1 view -0
	.cfi_startproc
	.loc 1 44 1 is_stmt 0 view .LVU446
	endbr64
	.loc 1 45 2 is_stmt 1 view .LVU447
	.loc 1 45 9 is_stmt 0 discriminator 1 view .LVU448
	movzbl	32(%rdi), %eax
	.loc 1 46 1 view .LVU449
	ret
	.cfi_endproc
.LFE1164:
	.size	_ZNK4Form8getSigneEv, .-_ZNK4Form8getSigneEv
	.section	.text.unlikely
	.align 2
.LCOLDB6:
	.text
.LHOTB6:
	.align 2
	.p2align 4
	.globl	_ZN4Form8beSignedE10Bureaucrat
	.type	_ZN4Form8beSignedE10Bureaucrat, @function
_ZN4Form8beSignedE10Bureaucrat:
.LVL124:
.LFB1167:
	.loc 1 59 1 is_stmt 1 view -0
	.cfi_startproc
	.loc 1 59 1 is_stmt 0 view .LVU451
	endbr64
	.loc 1 60 2 is_stmt 1 view .LVU452
	.loc 1 59 1 is_stmt 0 view .LVU453
	pushq	%rbx
	.cfi_def_cfa_offset 16
	.cfi_offset 3, -16
	.loc 1 59 1 view .LVU454
	movq	%rdi, %rbx
	movq	%rsi, %rdi
.LVL125:
	.loc 1 60 16 view .LVU455
	call	_ZNK10Bureaucrat8getGradeEv@PLT
.LVL126:
.LBB998:
.LBI998:
	.loc 1 33 5 is_stmt 1 view .LVU456
.LBB999:
	.loc 1 35 2 view .LVU457
	.loc 1 35 2 is_stmt 0 view .LVU458
.LBE999:
.LBE998:
	.loc 1 60 2 discriminator 2 view .LVU459
	cmpl	36(%rbx), %eax
	jg	.L73
	.loc 1 62 2 is_stmt 1 view .LVU460
	.loc 1 64 1 is_stmt 0 view .LVU461
	movq	%rbx, %rax
	.loc 1 62 8 view .LVU462
	movb	$1, 32(%rbx)
	.loc 1 63 2 is_stmt 1 view .LVU463
	.loc 1 64 1 is_stmt 0 view .LVU464
	popq	%rbx
	.cfi_def_cfa_offset 8
.LVL127:
	.loc 1 64 1 view .LVU465
	ret
.LVL128:
	.loc 1 64 1 view .LVU466
	.cfi_endproc
	.section	.text.unlikely
	.cfi_startproc
	.type	_ZN4Form8beSignedE10Bureaucrat.cold, @function
_ZN4Form8beSignedE10Bureaucrat.cold:
.LFSB1167:
.L73:
	.cfi_def_cfa_offset 16
	.cfi_offset 3, -16
	.loc 1 61 3 is_stmt 1 view .LVU338
	.loc 1 61 30 is_stmt 0 view .LVU468
	movl	$8, %edi
	call	__cxa_allocate_exception@PLT
.LVL129:
	.loc 1 61 30 discriminator 2 view .LVU469
	leaq	_ZN4Form20GradeTooLowExceptionD1Ev(%rip), %rdx
	leaq	_ZTIN4Form20GradeTooLowExceptionE(%rip), %rsi
	.loc 1 61 30 view .LVU470
	movq	%rax, %rdi
.LVL130:
.LBB1000:
.LBI1000:
	.loc 2 35 8 is_stmt 1 view .LVU471
.LBB1001:
.LBB1002:
.LBI1002:
	.loc 10 62 5 view .LVU472
	.loc 10 62 5 is_stmt 0 view .LVU473
.LBE1002:
	.loc 2 35 8 discriminator 1 view .LVU474
	leaq	16+_ZTVN4Form20GradeTooLowExceptionE(%rip), %rax
.LVL131:
	.loc 2 35 8 discriminator 1 view .LVU475
	movq	%rax, (%rdi)
.LVL132:
	.loc 2 35 8 discriminator 1 view .LVU476
.LBE1001:
.LBE1000:
	.loc 1 61 30 discriminator 2 view .LVU477
	call	__cxa_throw@PLT
.LVL133:
	.cfi_endproc
.LFE1167:
	.text
	.size	_ZN4Form8beSignedE10Bureaucrat, .-_ZN4Form8beSignedE10Bureaucrat
	.section	.text.unlikely
	.size	_ZN4Form8beSignedE10Bureaucrat.cold, .-_ZN4Form8beSignedE10Bureaucrat.cold
.LCOLDE6:
	.text
.LHOTE6:
	.section	.rodata.str1.1
.LC7:
	.string	"no"
.LC8:
	.string	"yes"
.LC9:
	.string	"Form \""
.LC10:
	.string	"\", signed: "
.LC11:
	.string	", grade to sign: "
.LC12:
	.string	", grade to execute: "
	.section	.text.unlikely
.LCOLDB13:
	.text
.LHOTB13:
	.p2align 4
	.globl	_ZlsRSoR4Form
	.type	_ZlsRSoR4Form, @function
_ZlsRSoR4Form:
.LVL134:
.LFB1168:
	.loc 1 67 1 is_stmt 1 view -0
	.cfi_startproc
	.cfi_personality 0x9b,DW.ref.__gxx_personality_v0
	.cfi_lsda 0x1b,.LLSDA1168
	.loc 1 67 1 is_stmt 0 view .LVU479
	endbr64
	pushq	%r15
	.cfi_def_cfa_offset 16
	.cfi_offset 15, -16
.LBB1133:
.LBB1134:
	.loc 8 667 18 view .LVU480
	movl	$6, %edx
.LBE1134:
.LBE1133:
	.loc 1 67 1 view .LVU481
	pushq	%r14
	.cfi_def_cfa_offset 24
	.cfi_offset 14, -24
	pushq	%r13
	.cfi_def_cfa_offset 32
	.cfi_offset 13, -32
	pushq	%r12
	.cfi_def_cfa_offset 40
	.cfi_offset 12, -40
	movq	%rdi, %r12
	pushq	%rbp
	.cfi_def_cfa_offset 48
	.cfi_offset 6, -48
	pushq	%rbx
	.cfi_def_cfa_offset 56
	.cfi_offset 3, -56
	movq	%rsi, %rbx
.LBB1137:
.LBB1135:
	.loc 8 667 18 view .LVU482
	leaq	.LC9(%rip), %rsi
.LVL135:
	.loc 8 667 18 view .LVU483
.LBE1135:
.LBE1137:
	.loc 1 67 1 view .LVU484
	subq	$72, %rsp
	.cfi_def_cfa_offset 128
	.loc 1 67 1 view .LVU485
	movq	%fs:40, %rax
	movq	%rax, 56(%rsp)
	xorl	%eax, %eax
	.loc 1 68 2 is_stmt 1 view .LVU486
.LVL136:
.LBB1138:
.LBI1133:
	.loc 8 662 5 view .LVU487
.LBE1138:
.LBB1139:
.LBB1140:
.LBB1141:
.LBB1142:
.LBB1143:
.LBB1144:
	.loc 5 185 25 is_stmt 0 discriminator 1 view .LVU488
	leaq	32(%rsp), %r13
	leaq	16(%rsp), %r14
.LEHB5:
.LBE1144:
.LBE1143:
.LBE1142:
.LBE1141:
.LBE1140:
.LBE1139:
.LBB1233:
.LBB1136:
	.loc 8 667 18 view .LVU489
	call	_ZSt16__ostream_insertIcSt11char_traitsIcEERSt13basic_ostreamIT_T0_ES6_PKS3_l@PLT
.LVL137:
.LEHE5:
	.loc 8 667 18 view .LVU490
.LBE1136:
.LBE1233:
.LBB1234:
.LBI1139:
	.loc 1 38 13 is_stmt 1 view .LVU491
	.loc 1 40 2 view .LVU492
.LBB1229:
.LBI1140:
	.loc 5 547 7 view .LVU493
.LBB1225:
.LBB1151:
.LBI1151:
	.loc 5 341 7 view .LVU494
	.loc 5 341 7 is_stmt 0 view .LVU495
.LBE1151:
.LBB1152:
.LBI1152:
	.loc 9 166 26 is_stmt 1 view .LVU496
	.loc 9 166 26 is_stmt 0 view .LVU497
.LBE1152:
.LBB1153:
.LBI1153:
	.loc 5 227 7 is_stmt 1 view .LVU498
	.loc 5 227 7 is_stmt 0 view .LVU499
.LBE1153:
.LBB1154:
.LBI1142:
	.loc 5 184 2 is_stmt 1 view .LVU500
.LBB1149:
.LBB1147:
.LBB1145:
.LBI1145:
	.loc 3 167 7 view .LVU501
.LBB1146:
.LBI1146:
	.loc 4 92 7 view .LVU502
	.loc 4 92 7 is_stmt 0 view .LVU503
.LBE1146:
.LBE1145:
.LBE1147:
.LBE1149:
.LBE1154:
.LBB1155:
.LBB1156:
	.loc 5 1079 16 view .LVU504
	movq	8(%rbx), %rbp
.LBE1156:
.LBE1155:
.LBB1157:
.LBB1158:
	.loc 5 223 28 view .LVU505
	movq	(%rbx), %r15
.LBE1158:
.LBE1157:
.LBB1159:
.LBB1150:
.LBB1148:
	.loc 5 185 25 discriminator 1 view .LVU506
	movq	%r13, 16(%rsp)
.LVL138:
	.loc 5 185 25 discriminator 1 view .LVU507
.LBE1148:
.LBE1150:
.LBE1159:
.LBB1160:
.LBI1157:
	.loc 5 222 7 is_stmt 1 view .LVU508
	.loc 5 222 7 is_stmt 0 view .LVU509
.LBE1160:
.LBB1161:
.LBI1155:
	.loc 5 1078 7 is_stmt 1 view .LVU510
	.loc 5 1078 7 is_stmt 0 view .LVU511
.LBE1161:
.LBB1162:
.LBI1162:
	.loc 5 222 7 is_stmt 1 view .LVU512
	.loc 5 222 7 is_stmt 0 view .LVU513
.LBE1162:
.LBB1163:
.LBI1163:
	.loc 7 221 7 is_stmt 1 view .LVU514
.LBB1164:
	.loc 7 225 12 is_stmt 0 discriminator 1 view .LVU515
	movq	%rbp, 8(%rsp)
	.loc 7 227 2 view .LVU516
	cmpq	$15, %rbp
	ja	.L90
.LVL139:
.LBB1165:
.LBI1165:
	.loc 7 239 13 is_stmt 1 view .LVU517
	.loc 7 239 13 is_stmt 0 view .LVU518
.LBE1165:
.LBB1166:
.LBI1166:
	.loc 5 222 7 is_stmt 1 view .LVU519
	.loc 5 222 7 is_stmt 0 view .LVU520
.LBE1166:
.LBB1167:
.LBI1167:
	.loc 5 477 7 is_stmt 1 view .LVU521
.LBB1168:
.LBI1168:
	.loc 5 425 7 view .LVU522
.LBB1169:
	.loc 5 427 2 is_stmt 0 view .LVU523
	cmpq	$1, %rbp
	jne	.L78
.LVL140:
.LBB1170:
.LBI1170:
	.loc 6 351 7 is_stmt 1 view .LVU524
.LBB1171:
	.loc 6 358 2 view .LVU525
	.loc 6 358 9 is_stmt 0 view .LVU526
	movzbl	(%r15), %eax
	.loc 6 358 7 view .LVU527
	movb	%al, 32(%rsp)
.LVL141:
	.loc 6 359 7 view .LVU528
	movq	%r13, %rax
.LVL142:
.L79:
	.loc 6 359 7 view .LVU529
.LBE1171:
.LBE1170:
.LBE1169:
.LBE1168:
.LBE1167:
.LBB1192:
.LBI1192:
	.loc 5 254 7 is_stmt 1 view .LVU530
.LBB1193:
.LBB1194:
.LBI1194:
	.loc 5 217 7 view .LVU531
.LBB1195:
	.loc 5 218 26 is_stmt 0 view .LVU532
	movq	%rbp, 24(%rsp)
.LVL143:
	.loc 5 218 26 view .LVU533
.LBE1195:
.LBE1194:
.LBB1196:
.LBI1196:
	.loc 5 222 7 is_stmt 1 view .LVU534
	.loc 5 222 7 is_stmt 0 view .LVU535
.LBE1196:
.LBB1198:
.LBI1198:
	.loc 6 351 7 is_stmt 1 view .LVU536
.LBB1199:
	.loc 6 358 2 view .LVU537
.LBE1199:
.LBE1198:
.LBE1193:
.LBE1192:
.LBE1164:
.LBE1163:
.LBE1225:
.LBE1229:
.LBE1234:
.LBB1235:
.LBB1236:
	.loc 5 4037 30 is_stmt 0 discriminator 2 view .LVU538
	movq	%r12, %rdi
.LBE1236:
.LBE1235:
.LBB1242:
.LBB1230:
.LBB1226:
.LBB1222:
.LBB1219:
.LBB1205:
.LBB1203:
.LBB1201:
.LBB1200:
	.loc 6 358 7 view .LVU539
	movb	$0, (%rax,%rbp)
.LVL144:
	.loc 6 358 7 view .LVU540
.LBE1200:
.LBE1201:
.LBE1203:
.LBE1205:
.LBB1206:
.LBI1206:
	.loc 7 242 4 is_stmt 1 view .LVU541
	.loc 7 242 4 is_stmt 0 view .LVU542
.LBE1206:
.LBE1219:
.LBE1222:
.LBE1226:
.LBE1230:
.LBE1242:
.LBB1243:
.LBI1235:
	.loc 5 4032 5 is_stmt 1 view .LVU543
.LBB1240:
.LBB1237:
.LBI1237:
	.loc 5 1071 7 view .LVU544
	.loc 5 1071 7 is_stmt 0 view .LVU545
.LBE1237:
.LBB1238:
.LBI1238:
	.loc 5 2608 7 is_stmt 1 view .LVU546
.LBB1239:
.LBI1239:
	.loc 5 222 7 view .LVU547
	.loc 5 222 7 is_stmt 0 view .LVU548
.LBE1239:
.LBE1238:
	.loc 5 4037 30 discriminator 2 view .LVU549
	movq	24(%rsp), %rdx
	movq	16(%rsp), %rsi
.LEHB6:
	call	_ZSt16__ostream_insertIcSt11char_traitsIcEERSt13basic_ostreamIT_T0_ES6_PKS3_l@PLT
.LVL145:
	.loc 5 4037 30 discriminator 2 view .LVU550
.LBE1240:
.LBE1243:
.LBB1244:
.LBB1245:
	.loc 8 667 18 view .LVU551
	movl	$11, %edx
	leaq	.LC10(%rip), %rsi
	movq	%rax, %rdi
.LBE1245:
.LBE1244:
.LBB1247:
.LBB1241:
	.loc 5 4037 30 discriminator 2 view .LVU552
	movq	%rax, %rbp
.LVL146:
	.loc 5 4037 30 discriminator 2 view .LVU553
.LBE1241:
.LBE1247:
.LBB1248:
.LBI1244:
	.loc 8 662 5 is_stmt 1 view .LVU554
.LBB1246:
	.loc 8 667 18 is_stmt 0 view .LVU555
	call	_ZSt16__ostream_insertIcSt11char_traitsIcEERSt13basic_ostreamIT_T0_ES6_PKS3_l@PLT
.LVL147:
	.loc 8 667 18 view .LVU556
.LBE1246:
.LBE1248:
.LBB1249:
.LBI1249:
	.loc 1 43 6 is_stmt 1 view .LVU557
.LBB1250:
	.loc 1 45 2 view .LVU558
	.loc 1 45 2 is_stmt 0 view .LVU559
.LBE1250:
.LBE1249:
	.loc 1 70 6 discriminator 2 view .LVU560
	cmpb	$1, 32(%rbx)
	leaq	.LC7(%rip), %rsi
	leaq	.LC8(%rip), %rax
.LBB1251:
.LBB1252:
	.loc 8 667 18 view .LVU561
	movq	%rbp, %rdi
.LBE1252:
.LBE1251:
	.loc 1 70 6 discriminator 2 view .LVU562
	sbbq	%rdx, %rdx
	addq	$3, %rdx
	cmpb	$0, 32(%rbx)
	cmovne	%rax, %rsi
.LBB1254:
.LBB1253:
	.loc 8 667 18 view .LVU563
	call	_ZSt16__ostream_insertIcSt11char_traitsIcEERSt13basic_ostreamIT_T0_ES6_PKS3_l@PLT
.LVL148:
	.loc 8 667 18 view .LVU564
.LBE1253:
.LBE1254:
.LBB1255:
.LBI1255:
	.loc 8 662 5 is_stmt 1 view .LVU565
.LBB1256:
	.loc 8 667 18 is_stmt 0 view .LVU566
	movl	$17, %edx
	leaq	.LC11(%rip), %rsi
	movq	%rbp, %rdi
	call	_ZSt16__ostream_insertIcSt11char_traitsIcEERSt13basic_ostreamIT_T0_ES6_PKS3_l@PLT
.LVL149:
	.loc 8 667 18 view .LVU567
.LBE1256:
.LBE1255:
.LBB1257:
.LBI1257:
	.loc 1 33 5 is_stmt 1 view .LVU568
.LBB1258:
	.loc 1 35 2 view .LVU569
	.loc 1 35 2 is_stmt 0 view .LVU570
.LBE1258:
.LBE1257:
	.loc 1 71 6 discriminator 1 view .LVU571
	movl	36(%rbx), %esi
	movq	%rbp, %rdi
	call	_ZNSolsEi@PLT
.LVL150:
.LBB1259:
.LBB1260:
	.loc 8 667 18 view .LVU572
	movl	$20, %edx
	leaq	.LC12(%rip), %rsi
	movq	%rax, %rdi
.LBE1260:
.LBE1259:
	.loc 1 71 6 discriminator 1 view .LVU573
	movq	%rax, %rbp
.LVL151:
.LBB1262:
.LBI1259:
	.loc 8 662 5 is_stmt 1 view .LVU574
.LBB1261:
	.loc 8 667 18 is_stmt 0 view .LVU575
	call	_ZSt16__ostream_insertIcSt11char_traitsIcEERSt13basic_ostreamIT_T0_ES6_PKS3_l@PLT
.LVL152:
	.loc 8 667 18 view .LVU576
.LBE1261:
.LBE1262:
.LBB1263:
.LBI1263:
	.loc 1 28 5 is_stmt 1 view .LVU577
.LBB1264:
	.loc 1 30 2 view .LVU578
	.loc 1 30 2 is_stmt 0 view .LVU579
.LBE1264:
.LBE1263:
	.loc 1 71 47 discriminator 1 view .LVU580
	movl	40(%rbx), %esi
	movq	%rbp, %rdi
	call	_ZNSolsEi@PLT
.LVL153:
.LEHE6:
.LBB1265:
.LBI1265:
	.loc 5 803 7 is_stmt 1 view .LVU581
.LBB1266:
.LBB1267:
.LBI1267:
	.loc 5 280 7 view .LVU582
.LBB1268:
.LBI1268:
	.loc 5 262 7 view .LVU583
.LBB1269:
.LBB1270:
.LBI1270:
	.loc 5 222 7 view .LVU584
.LBB1271:
	.loc 5 223 28 is_stmt 0 view .LVU585
	movq	16(%rsp), %rdi
.LVL154:
	.loc 5 223 28 view .LVU586
.LBE1271:
.LBE1270:
.LBB1272:
.LBI1272:
	.loc 5 238 7 is_stmt 1 view .LVU587
	.loc 5 238 7 is_stmt 0 view .LVU588
.LBE1272:
	.loc 5 264 2 discriminator 2 view .LVU589
	cmpq	%r13, %rdi
	je	.L81
.LVL155:
	.loc 5 264 2 discriminator 2 view .LVU590
.LBE1269:
.LBE1268:
.LBB1273:
.LBI1273:
	.loc 5 288 7 is_stmt 1 view .LVU591
.LBB1274:
.LBI1274:
	.loc 9 149 17 view .LVU592
.LBB1275:
.LBI1275:
	.loc 4 156 7 view .LVU593
.LBB1276:
	.loc 4 172 26 is_stmt 0 view .LVU594
	call	_ZdlPv@PLT
.LVL156:
.L81:
	.loc 4 172 26 view .LVU595
.LBE1276:
.LBE1275:
.LBE1274:
.LBE1273:
.LBE1267:
.LBB1277:
.LBI1277:
	.loc 5 181 14 is_stmt 1 view .LVU596
.LBB1278:
.LBI1278:
	.loc 3 184 7 view .LVU597
	.loc 3 184 7 is_stmt 0 view .LVU598
.LBE1278:
.LBE1277:
.LBE1266:
.LBE1265:
	.loc 1 72 2 is_stmt 1 view .LVU599
	.loc 1 73 1 is_stmt 0 view .LVU600
	movq	56(%rsp), %rax
	subq	%fs:40, %rax
	jne	.L91
	addq	$72, %rsp
	.cfi_remember_state
	.cfi_def_cfa_offset 56
	movq	%r12, %rax
	popq	%rbx
	.cfi_def_cfa_offset 48
.LVL157:
	.loc 1 73 1 view .LVU601
	popq	%rbp
	.cfi_def_cfa_offset 40
	popq	%r12
	.cfi_def_cfa_offset 32
.LVL158:
	.loc 1 73 1 view .LVU602
	popq	%r13
	.cfi_def_cfa_offset 24
	popq	%r14
	.cfi_def_cfa_offset 16
	popq	%r15
	.cfi_def_cfa_offset 8
	ret
.LVL159:
	.p2align 4,,10
	.p2align 3
.L78:
	.cfi_restore_state
.LBB1279:
.LBB1231:
.LBB1227:
.LBB1223:
.LBB1220:
.LBB1207:
.LBB1188:
.LBB1184:
.LBB1172:
.LBI1172:
	.loc 5 425 7 is_stmt 1 view .LVU603
.LBB1173:
.LBI1173:
	.loc 6 427 7 view .LVU604
.LBB1174:
	.loc 6 429 2 view .LVU605
	testq	%rbp, %rbp
	jne	.L92
	movq	%r13, %rax
	jmp	.L79
.LVL160:
	.p2align 4,,10
	.p2align 3
.L90:
	.loc 6 429 2 is_stmt 0 view .LVU606
.LBE1174:
.LBE1173:
.LBE1172:
.LBE1184:
.LBE1188:
.LBE1207:
	.loc 7 229 13 view .LVU607
	movq	%r14, %rdi
	leaq	8(%rsp), %rsi
	xorl	%edx, %edx
.LEHB7:
	call	_ZNSt7__cxx1112basic_stringIcSt11char_traitsIcESaIcEE9_M_createERmm@PLT
.LVL161:
.LEHE7:
.LBB1208:
.LBB1209:
	.loc 5 213 26 view .LVU608
	movq	%rax, 16(%rsp)
.LBE1209:
.LBE1208:
	.loc 7 229 13 view .LVU609
	movq	%rax, %rdi
.LVL162:
.LBB1210:
.LBI1208:
	.loc 5 212 7 is_stmt 1 view .LVU610
	.loc 5 212 7 is_stmt 0 view .LVU611
.LBE1210:
.LBB1211:
.LBI1211:
	.loc 5 249 7 is_stmt 1 view .LVU612
.LBB1212:
	.loc 5 250 31 is_stmt 0 view .LVU613
	movq	8(%rsp), %rax
	movq	%rax, 32(%rsp)
.LVL163:
	.loc 5 250 31 view .LVU614
.LBE1212:
.LBE1211:
.LBB1213:
	.loc 7 239 13 is_stmt 1 view .LVU615
	.loc 7 239 13 is_stmt 0 view .LVU616
.LBE1213:
.LBB1214:
	.loc 5 222 7 is_stmt 1 view .LVU617
	.loc 5 222 7 is_stmt 0 view .LVU618
.LBE1214:
.LBB1215:
	.loc 5 477 7 is_stmt 1 view .LVU619
.LBB1189:
	.loc 5 425 7 view .LVU620
.LBB1185:
.LBB1181:
	.loc 5 425 7 view .LVU621
.LBB1178:
	.loc 6 427 7 view .LVU622
.LBB1175:
	.loc 6 429 2 view .LVU623
.L77:
	.loc 6 435 2 view .LVU624
	.loc 6 435 49 is_stmt 0 view .LVU625
	movq	%rbp, %rdx
	movq	%r15, %rsi
	call	memcpy@PLT
.LVL164:
	.loc 6 435 49 view .LVU626
.LBE1175:
.LBE1178:
.LBE1181:
.LBE1185:
.LBE1189:
.LBE1215:
	.loc 7 251 15 view .LVU627
	movq	8(%rsp), %rbp
.LVL165:
.LBB1216:
.LBB1204:
.LBB1202:
.LBB1197:
	.loc 5 223 28 view .LVU628
	movq	16(%rsp), %rax
.LBE1197:
.LBE1202:
.LBE1204:
.LBE1216:
.LBB1217:
.LBB1190:
.LBB1186:
.LBB1182:
.LBB1179:
.LBB1176:
	.loc 6 435 66 view .LVU629
	jmp	.L79
.LVL166:
.L91:
	.loc 6 435 66 view .LVU630
.LBE1176:
.LBE1179:
.LBE1182:
.LBE1186:
.LBE1190:
.LBE1217:
.LBE1220:
.LBE1223:
.LBE1227:
.LBE1231:
.LBE1279:
	.loc 1 73 1 view .LVU631
	call	__stack_chk_fail@PLT
.LVL167:
.L92:
.LBB1280:
.LBB1232:
.LBB1228:
.LBB1224:
.LBB1221:
.LBB1218:
.LBB1191:
.LBB1187:
.LBB1183:
.LBB1180:
.LBB1177:
	.loc 1 73 1 view .LVU632
	movq	%r13, %rdi
	jmp	.L77
.LVL168:
.L87:
	.loc 1 73 1 view .LVU633
	endbr64
.LBE1177:
.LBE1180:
.LBE1183:
.LBE1187:
.LBE1191:
.LBE1218:
.LBE1221:
.LBE1224:
.LBE1228:
.LBE1232:
.LBE1280:
.LBB1281:
.LBB1282:
	.loc 5 804 19 view .LVU634
	movq	%rax, %rbx
.LVL169:
	.loc 5 804 19 view .LVU635
	jmp	.L82
.LBE1282:
.LBE1281:
	.section	.gcc_except_table
.LLSDA1168:
	.byte	0xff
	.byte	0xff
	.byte	0x1
	.uleb128 .LLSDACSE1168-.LLSDACSB1168
.LLSDACSB1168:
	.uleb128 .LEHB5-.LFB1168
	.uleb128 .LEHE5-.LEHB5
	.uleb128 0
	.uleb128 0
	.uleb128 .LEHB6-.LFB1168
	.uleb128 .LEHE6-.LEHB6
	.uleb128 .L87-.LFB1168
	.uleb128 0
	.uleb128 .LEHB7-.LFB1168
	.uleb128 .LEHE7-.LEHB7
	.uleb128 0
	.uleb128 0
.LLSDACSE1168:
	.text
	.cfi_endproc
	.section	.text.unlikely
	.cfi_startproc
	.cfi_personality 0x9b,DW.ref.__gxx_personality_v0
	.cfi_lsda 0x1b,.LLSDAC1168
	.type	_ZlsRSoR4Form.cold, @function
_ZlsRSoR4Form.cold:
.LFSB1168:
.LBB1287:
.LBB1285:
.L82:
	.cfi_def_cfa_offset 128
	.cfi_offset 3, -56
	.cfi_offset 6, -48
	.cfi_offset 12, -40
	.cfi_offset 13, -32
	.cfi_offset 14, -24
	.cfi_offset 15, -16
.LVL170:
	.loc 5 804 19 view .LVU478
.LBE1285:
.LBI1281:
	.loc 5 803 7 is_stmt 1 view .LVU637
.LBB1286:
	.loc 5 804 19 is_stmt 0 view .LVU638
	movq	%r14, %rdi
	call	_ZNSt7__cxx1112basic_stringIcSt11char_traitsIcESaIcEE10_M_disposeEv@PLT
.LVL171:
.LBB1283:
.LBI1283:
	.loc 5 181 14 is_stmt 1 view .LVU639
.LBB1284:
.LBI1284:
	.loc 3 184 7 view .LVU640
	.loc 3 184 7 is_stmt 0 view .LVU641
	movq	56(%rsp), %rax
	subq	%fs:40, %rax
	jne	.L93
	movq	%rbx, %rdi
.LEHB8:
	call	_Unwind_Resume@PLT
.LVL172:
.LEHE8:
.L93:
	call	__stack_chk_fail@PLT
.LVL173:
.LBE1284:
.LBE1283:
.LBE1286:
.LBE1287:
	.cfi_endproc
.LFE1168:
	.section	.gcc_except_table
.LLSDAC1168:
	.byte	0xff
	.byte	0xff
	.byte	0x1
	.uleb128 .LLSDACSEC1168-.LLSDACSBC1168
.LLSDACSBC1168:
	.uleb128 .LEHB8-.LCOLDB13
	.uleb128 .LEHE8-.LEHB8
	.uleb128 0
	.uleb128 0
.LLSDACSEC1168:
	.section	.text.unlikely
	.text
	.size	_ZlsRSoR4Form, .-_ZlsRSoR4Form
	.section	.text.unlikely
	.size	_ZlsRSoR4Form.cold, .-_ZlsRSoR4Form.cold
.LCOLDE13:
	.text
.LHOTE13:
	.weak	_ZTSN4Form21GradeTooHighExceptionE
	.section	.rodata._ZTSN4Form21GradeTooHighExceptionE,"aG",@progbits,_ZTSN4Form21GradeTooHighExceptionE,comdat
	.align 16
	.type	_ZTSN4Form21GradeTooHighExceptionE, @object
	.size	_ZTSN4Form21GradeTooHighExceptionE, 31
_ZTSN4Form21GradeTooHighExceptionE:
	.string	"N4Form21GradeTooHighExceptionE"
	.weak	_ZTIN4Form21GradeTooHighExceptionE
	.section	.data.rel.ro._ZTIN4Form21GradeTooHighExceptionE,"awG",@progbits,_ZTIN4Form21GradeTooHighExceptionE,comdat
	.align 8
	.type	_ZTIN4Form21GradeTooHighExceptionE, @object
	.size	_ZTIN4Form21GradeTooHighExceptionE, 24
_ZTIN4Form21GradeTooHighExceptionE:
	.quad	_ZTVN10__cxxabiv120__si_class_type_infoE+16
	.quad	_ZTSN4Form21GradeTooHighExceptionE
	.quad	_ZTISt9exception
	.weak	_ZTSN4Form20GradeTooLowExceptionE
	.section	.rodata._ZTSN4Form20GradeTooLowExceptionE,"aG",@progbits,_ZTSN4Form20GradeTooLowExceptionE,comdat
	.align 16
	.type	_ZTSN4Form20GradeTooLowExceptionE, @object
	.size	_ZTSN4Form20GradeTooLowExceptionE, 30
_ZTSN4Form20GradeTooLowExceptionE:
	.string	"N4Form20GradeTooLowExceptionE"
	.weak	_ZTIN4Form20GradeTooLowExceptionE
	.section	.data.rel.ro._ZTIN4Form20GradeTooLowExceptionE,"awG",@progbits,_ZTIN4Form20GradeTooLowExceptionE,comdat
	.align 8
	.type	_ZTIN4Form20GradeTooLowExceptionE, @object
	.size	_ZTIN4Form20GradeTooLowExceptionE, 24
_ZTIN4Form20GradeTooLowExceptionE:
	.quad	_ZTVN10__cxxabiv120__si_class_type_infoE+16
	.quad	_ZTSN4Form20GradeTooLowExceptionE
	.quad	_ZTISt9exception
	.weak	_ZTVN4Form21GradeTooHighExceptionE
	.section	.data.rel.ro.local._ZTVN4Form21GradeTooHighExceptionE,"awG",@progbits,_ZTVN4Form21GradeTooHighExceptionE,comdat
	.align 8
	.type	_ZTVN4Form21GradeTooHighExceptionE, @object
	.size	_ZTVN4Form21GradeTooHighExceptionE, 40
_ZTVN4Form21GradeTooHighExceptionE:
	.quad	0
	.quad	_ZTIN4Form21GradeTooHighExceptionE
	.quad	_ZN4Form21GradeTooHighExceptionD1Ev
	.quad	_ZN4Form21GradeTooHighExceptionD0Ev
	.quad	_ZNK4Form21GradeTooHighException4whatEv
	.weak	_ZTVN4Form20GradeTooLowExceptionE
	.section	.data.rel.ro.local._ZTVN4Form20GradeTooLowExceptionE,"awG",@progbits,_ZTVN4Form20GradeTooLowExceptionE,comdat
	.align 8
	.type	_ZTVN4Form20GradeTooLowExceptionE, @object
	.size	_ZTVN4Form20GradeTooLowExceptionE, 40
_ZTVN4Form20GradeTooLowExceptionE:
	.quad	0
	.quad	_ZTIN4Form20GradeTooLowExceptionE
	.quad	_ZN4Form20GradeTooLowExceptionD1Ev
	.quad	_ZN4Form20GradeTooLowExceptionD0Ev
	.quad	_ZNK4Form20GradeTooLowException4whatEv
	.section	.rodata.cst8,"aM",@progbits,8
	.align 8
.LC2:
	.long	150
	.long	150
	.text
.Letext0:
	.section	.text.unlikely
.Letext_cold0:
	.file 11 "<built-in>"
	.file 12 "/usr/lib/gcc/x86_64-linux-gnu/13/include/stddef.h"
	.file 13 "/usr/include/x86_64-linux-gnu/bits/types/wint_t.h"
	.file 14 "/usr/include/x86_64-linux-gnu/bits/types/__mbstate_t.h"
	.file 15 "/usr/include/x86_64-linux-gnu/bits/types/mbstate_t.h"
	.file 16 "/usr/include/x86_64-linux-gnu/bits/types/__FILE.h"
	.file 17 "/usr/include/c++/13/cwchar"
	.file 18 "/usr/include/x86_64-linux-gnu/c++/13/bits/c++config.h"
	.file 19 "/usr/include/c++/13/clocale"
	.file 20 "/usr/include/c++/13/bits/stl_iterator_base_types.h"
	.file 21 "/usr/include/c++/13/bits/stringfwd.h"
	.file 22 "/usr/include/c++/13/bits/ios_base.h"
	.file 23 "/usr/include/c++/13/cwctype"
	.file 24 "/usr/include/c++/13/bits/ostream.tcc"
	.file 25 "/usr/include/c++/13/iosfwd"
	.file 26 "/usr/include/c++/13/bits/basic_ios.tcc"
	.file 27 "/usr/include/c++/13/bits/basic_ios.h"
	.file 28 "/usr/include/c++/13/bits/ostream_insert.h"
	.file 29 "/usr/include/c++/13/bits/postypes.h"
	.file 30 "/usr/include/c++/13/bits/functexcept.h"
	.file 31 "/usr/include/c++/13/bits/stl_iterator_base_funcs.h"
	.file 32 "/usr/include/wchar.h"
	.file 33 "/usr/include/x86_64-linux-gnu/bits/wchar2.h"
	.file 34 "/usr/include/x86_64-linux-gnu/bits/types/struct_tm.h"
	.file 35 "/usr/include/c++/13/debug/debug.h"
	.file 36 "/usr/include/c++/13/bits/predefined_ops.h"
	.file 37 "/usr/include/c++/13/bits/stl_iterator.h"
	.file 38 "/usr/include/locale.h"
	.file 39 "/usr/include/x86_64-linux-gnu/bits/types.h"
	.file 40 "/usr/include/x86_64-linux-gnu/bits/wctype-wchar.h"
	.file 41 "/usr/include/wctype.h"
	.file 42 "src/../inc/Bureaucrat.hpp"
	.file 43 "/usr/include/c++/13/new"
	.file 44 "/usr/include/c++/13/iostream"
	.section	.data.rel.local.DW.ref.__gxx_personality_v0,"awG",@progbits,DW.ref.__gxx_personality_v0,comdat
	.align 8
	.type	DW.ref.__gxx_personality_v0, @object
	.size	DW.ref.__gxx_personality_v0, 8
DW.ref.__gxx_personality_v0:
	.quad	__gxx_personality_v0
	.ident	"GCC: (Ubuntu 13.3.0-6ubuntu2~24.04) 13.3.0"
	.section	.note.GNU-stack,"",@progbits
	.section	.note.gnu.property,"a"
	.align 8
	.long	1f - 0f
	.long	4f - 1f
	.long	5
0:
	.string	"GNU"
1:
	.align 8
	.long	0xc0000002
	.long	3f - 2f
2:
	.long	0x3
3:
	.align 8
4:
