	.file	"main.cpp"
	.text
.Ltext0:
	.file 0 "/home/suvao/Projetos/cpp-s/cpp05/ex01" "src/main.cpp"
#APP
	.globl _ZSt21ios_base_library_initv
#NO_APP
	.section	.text._ZNKSt5ctypeIcE8do_widenEc,"axG",@progbits,_ZNKSt5ctypeIcE8do_widenEc,comdat
	.align 2
	.p2align 4
	.weak	_ZNKSt5ctypeIcE8do_widenEc
	.type	_ZNKSt5ctypeIcE8do_widenEc, @function
_ZNKSt5ctypeIcE8do_widenEc:
.LVL0:
.LFB900:
	.file 1 "/usr/include/c++/13/bits/locale_facets.h"
	.loc 1 1092 7 view -0
	.cfi_startproc
	.loc 1 1092 7 is_stmt 0 view .LVU1
	endbr64
	.loc 1 1093 9 is_stmt 1 view .LVU2
	.loc 1 1092 7 is_stmt 0 view .LVU3
	movl	%esi, %eax
	.loc 1 1093 21 view .LVU4
	ret
	.cfi_endproc
.LFE900:
	.size	_ZNKSt5ctypeIcE8do_widenEc, .-_ZNKSt5ctypeIcE8do_widenEc
	.section	.rodata.str1.8,"aMS",@progbits,1
	.align 8
.LC0:
	.string	"basic_string: construction from null is not valid"
	.text
	.align 2
	.p2align 4
	.type	_ZNSt7__cxx1112basic_stringIcSt11char_traitsIcESaIcEEC2EPKcRKS3_.isra.0, @function
_ZNSt7__cxx1112basic_stringIcSt11char_traitsIcESaIcEEC2EPKcRKS3_.isra.0:
.LVL1:
.LFB1196:
	.file 2 "/usr/include/c++/13/bits/basic_string.h"
	.loc 2 641 7 is_stmt 1 view -0
	.cfi_startproc
	.loc 2 641 7 is_stmt 0 view .LVU6
	pushq	%r13
	.cfi_def_cfa_offset 16
	.cfi_offset 13, -16
	pushq	%r12
	.cfi_def_cfa_offset 24
	.cfi_offset 12, -24
.LBB358:
.LBB359:
	.loc 2 232 29 view .LVU7
	leaq	16(%rdi), %r12
.LBE359:
.LBE358:
	.loc 2 641 7 view .LVU8
	pushq	%rbp
	.cfi_def_cfa_offset 32
	.cfi_offset 6, -32
	pushq	%rbx
	.cfi_def_cfa_offset 40
	.cfi_offset 3, -40
	subq	$24, %rsp
	.cfi_def_cfa_offset 64
	.loc 2 641 7 view .LVU9
	movq	%fs:40, %rax
	movq	%rax, 8(%rsp)
	xorl	%eax, %eax
.LVL2:
.LBB360:
.LBI358:
	.loc 2 227 7 is_stmt 1 view .LVU10
	.loc 2 227 7 is_stmt 0 view .LVU11
.LBE360:
.LBB361:
.LBI361:
	.loc 2 184 2 is_stmt 1 view .LVU12
.LBB362:
.LBB363:
.LBI363:
	.file 3 "/usr/include/c++/13/bits/allocator.h"
	.loc 3 167 7 view .LVU13
.LBB364:
.LBI364:
	.file 4 "/usr/include/c++/13/bits/new_allocator.h"
	.loc 4 92 7 view .LVU14
	.loc 4 92 7 is_stmt 0 view .LVU15
.LBE364:
.LBE363:
	.loc 2 185 25 discriminator 1 view .LVU16
	movq	%r12, (%rdi)
.LVL3:
	.loc 2 185 25 discriminator 1 view .LVU17
.LBE362:
.LBE361:
.LBB365:
	.loc 2 645 2 view .LVU18
	testq	%rsi, %rsi
	je	.L10
	movq	%rdi, %rbx
.LBB366:
.LBB367:
	.file 5 "/usr/include/c++/13/bits/char_traits.h"
	.loc 5 399 25 view .LVU19
	movq	%rsi, %rdi
.LVL4:
	.loc 5 399 25 view .LVU20
	movq	%rsi, %rbp
.LVL5:
	.loc 5 399 25 view .LVU21
.LBE367:
.LBI366:
	.loc 5 393 7 is_stmt 1 view .LVU22
.LBB368:
	.loc 5 399 2 view .LVU23
	.loc 5 399 25 is_stmt 0 view .LVU24
	call	strlen@PLT
.LVL6:
	.loc 5 399 25 view .LVU25
.LBE368:
.LBE366:
.LBB369:
.LBB370:
	.file 6 "/usr/include/c++/13/bits/basic_string.tcc"
	.loc 6 225 12 discriminator 1 view .LVU26
	movq	%rax, (%rsp)
.LBE370:
.LBE369:
	.loc 2 648 16 discriminator 1 view .LVU27
	leaq	0(%rbp,%rax), %r13
.LVL7:
.LBB390:
.LBI369:
	.loc 6 221 7 is_stmt 1 view .LVU28
.LBB388:
	.loc 6 227 2 is_stmt 0 view .LVU29
	cmpq	$15, %rax
	ja	.L11
.L6:
.LVL8:
.LBB371:
.LBI371:
	.loc 6 239 13 is_stmt 1 view .LVU30
	.loc 6 239 13 is_stmt 0 view .LVU31
.LBE371:
	.loc 6 247 21 discriminator 1 view .LVU32
	movq	%r13, %rdx
	movq	%rbp, %rsi
	movq	%r12, %rdi
	call	_ZNSt7__cxx1112basic_stringIcSt11char_traitsIcESaIcEE13_S_copy_charsEPcPKcS7_@PLT
.LVL9:
	.loc 6 251 15 view .LVU33
	movq	(%rsp), %rax
.LVL10:
.LBB372:
.LBI372:
	.loc 2 254 7 is_stmt 1 view .LVU34
.LBB373:
.LBB374:
.LBI374:
	.loc 2 217 7 view .LVU35
.LBE374:
.LBB376:
.LBB377:
	.loc 5 358 7 is_stmt 0 view .LVU36
	movq	(%rbx), %rdx
.LBE377:
.LBE376:
.LBB379:
.LBB375:
	.loc 2 218 26 view .LVU37
	movq	%rax, 8(%rbx)
.LVL11:
	.loc 2 218 26 view .LVU38
.LBE375:
.LBE379:
.LBB380:
.LBI380:
	.loc 2 222 7 is_stmt 1 view .LVU39
	.loc 2 222 7 is_stmt 0 view .LVU40
.LBE380:
.LBB381:
.LBI376:
	.loc 5 351 7 is_stmt 1 view .LVU41
.LBB378:
	.loc 5 358 2 view .LVU42
	.loc 5 358 7 is_stmt 0 view .LVU43
	movb	$0, (%rdx,%rax)
.LVL12:
	.loc 5 358 7 view .LVU44
.LBE378:
.LBE381:
.LBE373:
.LBE372:
.LBB382:
.LBI382:
	.loc 6 242 4 is_stmt 1 view .LVU45
	.loc 6 242 4 is_stmt 0 view .LVU46
.LBE382:
.LBE388:
.LBE390:
.LBE365:
	.loc 2 650 7 view .LVU47
	movq	8(%rsp), %rax
	subq	%fs:40, %rax
	jne	.L9
	addq	$24, %rsp
	.cfi_remember_state
	.cfi_def_cfa_offset 40
	popq	%rbx
	.cfi_def_cfa_offset 32
.LVL13:
	.loc 2 650 7 view .LVU48
	popq	%rbp
	.cfi_def_cfa_offset 24
.LVL14:
	.loc 2 650 7 view .LVU49
	popq	%r12
	.cfi_def_cfa_offset 16
	popq	%r13
	.cfi_def_cfa_offset 8
.LVL15:
	.loc 2 650 7 view .LVU50
	ret
.LVL16:
.L11:
	.cfi_restore_state
.LBB392:
.LBB391:
.LBB389:
	.loc 6 229 13 view .LVU51
	movq	%rsp, %rsi
	xorl	%edx, %edx
	movq	%rbx, %rdi
	call	_ZNSt7__cxx1112basic_stringIcSt11char_traitsIcESaIcEE9_M_createERmm@PLT
.LVL17:
.LBB383:
.LBB384:
	.loc 2 213 26 view .LVU52
	movq	%rax, (%rbx)
.LBE384:
.LBE383:
	.loc 6 229 13 view .LVU53
	movq	%rax, %r12
.LVL18:
.LBB385:
.LBI383:
	.loc 2 212 7 is_stmt 1 view .LVU54
	.loc 2 212 7 is_stmt 0 view .LVU55
.LBE385:
.LBB386:
.LBI386:
	.loc 2 249 7 is_stmt 1 view .LVU56
.LBB387:
	.loc 2 250 31 is_stmt 0 view .LVU57
	movq	(%rsp), %rax
	movq	%rax, 16(%rbx)
.LVL19:
	.loc 2 250 45 view .LVU58
	jmp	.L6
.LVL20:
.L10:
	.loc 2 250 45 view .LVU59
.LBE387:
.LBE386:
.LBE389:
.LBE391:
.LBE392:
.LBB393:
.LBI393:
	.loc 2 641 7 is_stmt 1 view .LVU60
.LBB394:
	.loc 2 646 28 is_stmt 0 view .LVU61
	movq	8(%rsp), %rax
	subq	%fs:40, %rax
	jne	.L9
	leaq	.LC0(%rip), %rdi
.LVL21:
	.loc 2 646 28 view .LVU62
	call	_ZSt19__throw_logic_errorPKc@PLT
.LVL22:
.L9:
	.loc 2 646 28 view .LVU63
.LBE394:
.LBE393:
	.loc 2 650 7 view .LVU64
	call	__stack_chk_fail@PLT
.LVL23:
	.cfi_endproc
.LFE1196:
	.size	_ZNSt7__cxx1112basic_stringIcSt11char_traitsIcESaIcEEC2EPKcRKS3_.isra.0, .-_ZNSt7__cxx1112basic_stringIcSt11char_traitsIcESaIcEEC2EPKcRKS3_.isra.0
	.p2align 4
	.type	_ZSt4endlIcSt11char_traitsIcEERSt13basic_ostreamIT_T0_ES6_.isra.0, @function
_ZSt4endlIcSt11char_traitsIcEERSt13basic_ostreamIT_T0_ES6_.isra.0:
.LVL24:
.LFB1198:
	.file 7 "/usr/include/c++/13/ostream"
	.loc 7 735 5 is_stmt 1 view -0
	.cfi_startproc
	.loc 7 735 5 is_stmt 0 view .LVU66
	pushq	%rbp
	.cfi_def_cfa_offset 16
	.cfi_offset 6, -16
	pushq	%rbx
	.cfi_def_cfa_offset 24
	.cfi_offset 3, -24
	subq	$8, %rsp
	.cfi_def_cfa_offset 32
	.loc 7 736 39 view .LVU67
	movq	(%rdi), %rax
	movq	-24(%rax), %rax
	movq	240(%rdi,%rax), %rbp
.LVL25:
.LBB411:
.LBI411:
	.file 8 "/usr/include/c++/13/bits/basic_ios.h"
	.loc 8 449 7 is_stmt 1 view .LVU68
.LBB412:
.LBI412:
	.loc 8 47 5 view .LVU69
.LBB413:
	.loc 8 49 7 is_stmt 0 view .LVU70
	testq	%rbp, %rbp
	je	.L18
.LBE413:
.LBE412:
.LBB415:
.LBB416:
	.loc 1 882 2 view .LVU71
	cmpb	$0, 56(%rbp)
	movq	%rdi, %rbx
.LVL26:
	.loc 1 882 2 view .LVU72
.LBE416:
.LBI415:
	.loc 1 880 7 is_stmt 1 view .LVU73
.LBB419:
	.loc 1 882 2 view .LVU74
	je	.L14
	.loc 1 883 4 view .LVU75
	.loc 1 883 51 is_stmt 0 view .LVU76
	movsbl	67(%rbp), %esi
.LVL27:
.L15:
	.loc 1 883 51 view .LVU77
.LBE419:
.LBE415:
.LBE411:
	.loc 7 736 19 discriminator 1 view .LVU78
	movq	%rbx, %rdi
	call	_ZNSo3putEc@PLT
.LVL28:
	.loc 7 736 49 view .LVU79
	addq	$8, %rsp
	.cfi_remember_state
	.cfi_def_cfa_offset 24
	popq	%rbx
	.cfi_def_cfa_offset 16
.LVL29:
	.loc 7 736 19 discriminator 1 view .LVU80
	movq	%rax, %rdi
.LVL30:
.LBB423:
.LBI423:
	.loc 7 757 5 is_stmt 1 view .LVU81
.LBE423:
	.loc 7 736 49 is_stmt 0 view .LVU82
	popq	%rbp
	.cfi_def_cfa_offset 8
.LBB425:
.LBB424:
	.loc 7 758 24 view .LVU83
	jmp	_ZNSo5flushEv@PLT
.LVL31:
.L14:
	.cfi_restore_state
	.loc 7 758 24 view .LVU84
.LBE424:
.LBE425:
.LBB426:
.LBB421:
.LBB420:
.LBB417:
.LBI417:
	.loc 1 880 7 is_stmt 1 view .LVU85
.LBB418:
	.loc 1 884 2 view .LVU86
	.loc 1 884 21 is_stmt 0 view .LVU87
	movq	%rbp, %rdi
	call	_ZNKSt5ctypeIcE13_M_widen_initEv@PLT
.LVL32:
	.loc 1 885 2 is_stmt 1 view .LVU88
	.loc 1 885 23 is_stmt 0 view .LVU89
	movq	0(%rbp), %rax
	movl	$10, %esi
	leaq	_ZNKSt5ctypeIcE8do_widenEc(%rip), %rdx
	movq	48(%rax), %rax
	cmpq	%rdx, %rax
	je	.L15
	movl	$10, %esi
	movq	%rbp, %rdi
	call	*%rax
.LVL33:
	movsbl	%al, %esi
	jmp	.L15
.LVL34:
.L18:
	.loc 1 885 23 view .LVU90
.LBE418:
.LBE417:
.LBE420:
.LBE421:
.LBB422:
.LBB414:
	.loc 8 50 18 view .LVU91
	call	_ZSt16__throw_bad_castv@PLT
.LVL35:
	.loc 8 50 18 view .LVU92
.LBE414:
.LBE422:
.LBE426:
	.cfi_endproc
.LFE1198:
	.size	_ZSt4endlIcSt11char_traitsIcEERSt13basic_ostreamIT_T0_ES6_.isra.0, .-_ZSt4endlIcSt11char_traitsIcEERSt13basic_ostreamIT_T0_ES6_.isra.0
	.section	.rodata.str1.1,"aMS",@progbits,1
.LC1:
	.string	"Alice"
.LC2:
	.string	"Bob"
.LC3:
	.string	"Top Secret Contract"
	.section	.rodata.str1.8
	.align 8
.LC4:
	.string	"\nTrying to sign with Bob (grade too low):\n"
	.section	.rodata.str1.1
.LC5:
	.string	"\nTrying to sign with Alice:\n"
	.section	.rodata.str1.8
	.align 8
.LC6:
	.string	"\nForm state after signing attempts:\n"
	.section	.rodata.str1.1
.LC7:
	.string	"Exception caught in main: "
	.section	.text.unlikely,"ax",@progbits
.LCOLDB8:
	.section	.text.startup,"ax",@progbits
.LHOTB8:
	.p2align 4
	.section	.text.unlikely
.Ltext_cold0:
	.section	.text.startup
	.globl	main
	.type	main, @function
main:
.LFB1125:
	.file 9 "src/main.cpp"
	.loc 9 5 12 is_stmt 1 view -0
	.cfi_startproc
	.cfi_personality 0x9b,DW.ref.__gxx_personality_v0
	.cfi_lsda 0x1b,.LLSDA1125
	endbr64
	pushq	%r14
	.cfi_def_cfa_offset 16
	.cfi_offset 14, -16
.LBB427:
	.loc 9 8 36 is_stmt 0 discriminator 1 view .LVU94
	leaq	.LC1(%rip), %rsi
.LBE427:
	.loc 9 5 12 view .LVU95
	pushq	%r13
	.cfi_def_cfa_offset 24
	.cfi_offset 13, -24
	pushq	%r12
	.cfi_def_cfa_offset 32
	.cfi_offset 12, -32
	pushq	%rbp
	.cfi_def_cfa_offset 40
	.cfi_offset 6, -40
	pushq	%rbx
	.cfi_def_cfa_offset 48
	.cfi_offset 3, -48
	subq	$192, %rsp
	.cfi_def_cfa_offset 240
	.loc 9 5 12 view .LVU96
	movq	%fs:40, %rax
	movq	%rax, 184(%rsp)
	xorl	%eax, %eax
	.loc 9 6 5 is_stmt 1 view .LVU97
.LBB478:
	.loc 9 8 9 view .LVU98
.LVL36:
.LBB428:
.LBI428:
	.loc 3 163 7 view .LVU99
.LBB429:
.LBI429:
	.loc 4 88 7 view .LVU100
	.loc 4 88 7 is_stmt 0 view .LVU101
.LBE429:
.LBE428:
	.loc 9 8 36 discriminator 1 view .LVU102
	leaq	128(%rsp), %rbx
	movq	%rbx, %rdi
.LEHB0:
	call	_ZNSt7__cxx1112basic_stringIcSt11char_traitsIcESaIcEEC2EPKcRKS3_.isra.0
.LVL37:
.LEHE0:
	.loc 9 8 36 discriminator 2 view .LVU103
	leaq	32(%rsp), %r12
	movl	$5, %edx
	movq	%rbx, %rsi
	movq	%r12, %rdi
.LEHB1:
	call	_ZN10BureaucratC1ERKNSt7__cxx1112basic_stringIcSt11char_traitsIcESaIcEEEi@PLT
.LVL38:
.LEHE1:
.LBB430:
.LBI430:
	.loc 2 803 7 is_stmt 1 view .LVU104
.LBB431:
	.loc 2 804 19 is_stmt 0 view .LVU105
	movq	%rbx, %rdi
	call	_ZNSt7__cxx1112basic_stringIcSt11char_traitsIcESaIcEE10_M_disposeEv@PLT
.LVL39:
.LBB432:
.LBI432:
	.loc 2 181 14 is_stmt 1 view .LVU106
.LBB433:
.LBI433:
	.loc 3 184 7 view .LVU107
	.loc 3 184 7 is_stmt 0 view .LVU108
.LBE433:
.LBE432:
.LBE431:
.LBE430:
.LBB434:
.LBI434:
	.loc 3 184 7 is_stmt 1 view .LVU109
.LBB435:
.LBI435:
	.loc 4 104 7 view .LVU110
	.loc 4 104 7 is_stmt 0 view .LVU111
.LBE435:
.LBE434:
	.loc 9 9 9 is_stmt 1 view .LVU112
.LBB436:
.LBI436:
	.loc 3 163 7 view .LVU113
.LBB437:
.LBI437:
	.loc 4 88 7 view .LVU114
	.loc 4 88 7 is_stmt 0 view .LVU115
.LBE437:
.LBE436:
	.loc 9 9 34 discriminator 1 view .LVU116
	leaq	.LC2(%rip), %rsi
	movq	%rbx, %rdi
.LEHB2:
	call	_ZNSt7__cxx1112basic_stringIcSt11char_traitsIcESaIcEEC2EPKcRKS3_.isra.0
.LVL40:
.LEHE2:
	.loc 9 9 34 discriminator 2 view .LVU117
	leaq	80(%rsp), %r13
	movl	$150, %edx
	movq	%rbx, %rsi
	movq	%r13, %rdi
.LEHB3:
	call	_ZN10BureaucratC1ERKNSt7__cxx1112basic_stringIcSt11char_traitsIcESaIcEEEi@PLT
.LVL41:
.LEHE3:
.LBB438:
.LBI438:
	.loc 2 803 7 is_stmt 1 view .LVU118
.LBB439:
	.loc 2 804 19 is_stmt 0 view .LVU119
	movq	%rbx, %rdi
.LBE439:
.LBE438:
	.loc 9 10 51 discriminator 1 view .LVU120
	movq	%rsp, %rbp
.LBB443:
.LBB442:
	.loc 2 804 19 view .LVU121
	call	_ZNSt7__cxx1112basic_stringIcSt11char_traitsIcESaIcEE10_M_disposeEv@PLT
.LVL42:
.LBB440:
.LBI440:
	.loc 2 181 14 is_stmt 1 view .LVU122
.LBB441:
.LBI441:
	.loc 3 184 7 view .LVU123
	.loc 3 184 7 is_stmt 0 view .LVU124
.LBE441:
.LBE440:
.LBE442:
.LBE443:
.LBB444:
.LBI444:
	.loc 3 184 7 is_stmt 1 view .LVU125
.LBB445:
.LBI445:
	.loc 4 104 7 view .LVU126
	.loc 4 104 7 is_stmt 0 view .LVU127
.LBE445:
.LBE444:
	.loc 9 10 9 is_stmt 1 view .LVU128
.LBB446:
.LBI446:
	.loc 3 163 7 view .LVU129
.LBB447:
.LBI447:
	.loc 4 88 7 view .LVU130
	.loc 4 88 7 is_stmt 0 view .LVU131
.LBE447:
.LBE446:
	.loc 9 10 51 discriminator 1 view .LVU132
	leaq	.LC3(%rip), %rsi
	movq	%rbp, %rdi
.LEHB4:
	call	_ZNSt7__cxx1112basic_stringIcSt11char_traitsIcESaIcEEC2EPKcRKS3_.isra.0
.LVL43:
.LEHE4:
	.loc 9 10 51 discriminator 2 view .LVU133
	movl	$5, %ecx
	movl	$10, %edx
	movq	%rbp, %rsi
	movq	%rbx, %rdi
.LEHB5:
	call	_ZN4FormC1ERKNSt7__cxx1112basic_stringIcSt11char_traitsIcESaIcEEEii@PLT
.LVL44:
.LEHE5:
.LBB448:
.LBI448:
	.loc 2 803 7 is_stmt 1 view .LVU134
.LBB449:
	.loc 2 804 19 is_stmt 0 view .LVU135
	movq	%rbp, %rdi
.LBE449:
.LBE448:
	.loc 9 11 22 view .LVU136
	leaq	_ZSt4cout(%rip), %rbp
.LVL45:
.LBB453:
.LBB452:
	.loc 2 804 19 view .LVU137
	call	_ZNSt7__cxx1112basic_stringIcSt11char_traitsIcESaIcEE10_M_disposeEv@PLT
.LVL46:
.LBB450:
.LBI450:
	.loc 2 181 14 is_stmt 1 view .LVU138
.LBB451:
.LBI451:
	.loc 3 184 7 view .LVU139
	.loc 3 184 7 is_stmt 0 view .LVU140
.LBE451:
.LBE450:
.LBE452:
.LBE453:
.LBB454:
.LBI454:
	.loc 3 184 7 is_stmt 1 view .LVU141
.LBB455:
.LBI455:
	.loc 4 104 7 view .LVU142
	.loc 4 104 7 is_stmt 0 view .LVU143
.LBE455:
.LBE454:
	.loc 9 11 9 is_stmt 1 view .LVU144
	.loc 9 11 22 is_stmt 0 view .LVU145
	movq	%rbx, %rsi
	movq	%rbp, %rdi
.LEHB6:
	call	_ZlsRSoR4Form@PLT
.LVL47:
	movq	%rax, %rdi
.LVL48:
.LBB456:
.LBI456:
	.loc 7 110 7 is_stmt 1 view .LVU146
.LBB457:
	.loc 7 115 13 is_stmt 0 view .LVU147
	call	_ZSt4endlIcSt11char_traitsIcEERSt13basic_ostreamIT_T0_ES6_.isra.0
.LVL49:
	.loc 7 115 13 view .LVU148
.LBE457:
.LBE456:
	.loc 9 12 9 is_stmt 1 view .LVU149
	.loc 9 12 22 is_stmt 0 view .LVU150
	leaq	.LC4(%rip), %rsi
	movq	%rbp, %rdi
	call	_ZStlsISt11char_traitsIcEERSt13basic_ostreamIcT_ES5_PKc@PLT
.LVL50:
	.loc 9 13 9 is_stmt 1 view .LVU151
	.loc 9 13 21 is_stmt 0 view .LVU152
	movq	%rbx, %rsi
	movq	%r13, %rdi
	call	_ZN10Bureaucrat8signFormER4Form@PLT
.LVL51:
	.loc 9 14 9 is_stmt 1 view .LVU153
	.loc 9 14 22 is_stmt 0 view .LVU154
	leaq	.LC5(%rip), %rsi
	movq	%rbp, %rdi
	call	_ZStlsISt11char_traitsIcEERSt13basic_ostreamIcT_ES5_PKc@PLT
.LVL52:
	.loc 9 15 9 is_stmt 1 view .LVU155
	.loc 9 15 23 is_stmt 0 view .LVU156
	movq	%rbx, %rsi
	movq	%r12, %rdi
	call	_ZN10Bureaucrat8signFormER4Form@PLT
.LVL53:
	.loc 9 16 9 is_stmt 1 view .LVU157
	.loc 9 16 22 is_stmt 0 view .LVU158
	leaq	.LC6(%rip), %rsi
	movq	%rbp, %rdi
	call	_ZStlsISt11char_traitsIcEERSt13basic_ostreamIcT_ES5_PKc@PLT
.LVL54:
	.loc 9 17 9 is_stmt 1 view .LVU159
	.loc 9 17 22 is_stmt 0 view .LVU160
	movq	%rbx, %rsi
	movq	%rbp, %rdi
	call	_ZlsRSoR4Form@PLT
.LVL55:
	movq	%rax, %rdi
.LVL56:
.LBB458:
.LBI458:
	.loc 7 110 7 is_stmt 1 view .LVU161
.LBB459:
	.loc 7 115 13 is_stmt 0 view .LVU162
	call	_ZSt4endlIcSt11char_traitsIcEERSt13basic_ostreamIT_T0_ES6_.isra.0
.LVL57:
.LEHE6:
	.loc 7 115 13 view .LVU163
.LBE459:
.LBE458:
	.loc 9 18 5 view .LVU164
	movq	%rbx, %rdi
.LEHB7:
	call	_ZN4FormD1Ev@PLT
.LVL58:
.LEHE7:
	.loc 9 18 5 discriminator 2 view .LVU165
	movq	%r13, %rdi
.LEHB8:
	call	_ZN10BureaucratD1Ev@PLT
.LVL59:
.LEHE8:
	.loc 9 18 5 discriminator 4 view .LVU166
	movq	%r12, %rdi
.LEHB9:
	call	_ZN10BureaucratD1Ev@PLT
.LVL60:
.LEHE9:
.L29:
	.loc 9 18 5 discriminator 4 view .LVU167
.LBE478:
	.loc 9 23 5 is_stmt 1 view .LVU168
	.loc 9 24 1 is_stmt 0 view .LVU169
	movq	184(%rsp), %rax
	subq	%fs:40, %rax
	jne	.L43
	addq	$192, %rsp
	.cfi_remember_state
	.cfi_def_cfa_offset 48
	xorl	%eax, %eax
	popq	%rbx
	.cfi_def_cfa_offset 40
	popq	%rbp
	.cfi_def_cfa_offset 32
	popq	%r12
	.cfi_def_cfa_offset 24
	popq	%r13
	.cfi_def_cfa_offset 16
	popq	%r14
	.cfi_def_cfa_offset 8
	ret
.L43:
	.cfi_restore_state
	call	__stack_chk_fail@PLT
.LVL61:
.L39:
	.loc 9 24 1 view .LVU170
	endbr64
.LBB479:
	.loc 9 18 5 view .LVU171
	movq	%rax, %rbp
	movq	%rdx, %r14
	jmp	.L26
.LVL62:
.L37:
	.loc 9 18 5 view .LVU172
	endbr64
.LBB460:
.LBB461:
	.loc 2 804 19 view .LVU173
	movq	%rax, %rbx
	movq	%rdx, %r14
	jmp	.L24
.L38:
	endbr64
.LBE461:
.LBE460:
	.loc 9 18 5 discriminator 1 view .LVU174
	movq	%rax, %rbx
	movq	%rdx, %rbp
	jmp	.L25
.LVL63:
.L35:
	.loc 9 18 5 discriminator 1 view .LVU175
	endbr64
.LBB465:
.LBB466:
	.loc 2 804 19 view .LVU176
	movq	%rax, %rbp
	movq	%rdx, %r13
	jmp	.L22
.LVL64:
.L33:
	.loc 2 804 19 view .LVU177
	endbr64
.LBE466:
.LBE465:
.LBB470:
.LBB471:
	movq	%rax, %rbp
	movq	%rdx, %r12
	jmp	.L20
.LVL65:
.L36:
	.loc 2 804 19 view .LVU178
	endbr64
.LBE471:
.LBE470:
	.loc 9 18 5 discriminator 3 view .LVU179
	movq	%rax, %rbx
	movq	%rdx, %rbp
	jmp	.L23
.LVL66:
.L34:
	.loc 9 18 5 discriminator 3 view .LVU180
	endbr64
.LBE479:
	.loc 9 18 7 view .LVU181
	movq	%rax, %rdi
	movq	%rdx, %rbp
	jmp	.L21
.LVL67:
	.loc 9 18 7 view .LVU182
	.globl	__gxx_personality_v0
	.section	.gcc_except_table,"a",@progbits
	.align 4
.LLSDA1125:
	.byte	0xff
	.byte	0x9b
	.uleb128 .LLSDATT1125-.LLSDATTD1125
.LLSDATTD1125:
	.byte	0x1
	.uleb128 .LLSDACSE1125-.LLSDACSB1125
.LLSDACSB1125:
	.uleb128 .LEHB0-.LFB1125
	.uleb128 .LEHE0-.LEHB0
	.uleb128 .L34-.LFB1125
	.uleb128 0x1
	.uleb128 .LEHB1-.LFB1125
	.uleb128 .LEHE1-.LEHB1
	.uleb128 .L33-.LFB1125
	.uleb128 0x3
	.uleb128 .LEHB2-.LFB1125
	.uleb128 .LEHE2-.LEHB2
	.uleb128 .L36-.LFB1125
	.uleb128 0x3
	.uleb128 .LEHB3-.LFB1125
	.uleb128 .LEHE3-.LEHB3
	.uleb128 .L35-.LFB1125
	.uleb128 0x3
	.uleb128 .LEHB4-.LFB1125
	.uleb128 .LEHE4-.LEHB4
	.uleb128 .L38-.LFB1125
	.uleb128 0x3
	.uleb128 .LEHB5-.LFB1125
	.uleb128 .LEHE5-.LEHB5
	.uleb128 .L37-.LFB1125
	.uleb128 0x3
	.uleb128 .LEHB6-.LFB1125
	.uleb128 .LEHE6-.LEHB6
	.uleb128 .L39-.LFB1125
	.uleb128 0x3
	.uleb128 .LEHB7-.LFB1125
	.uleb128 .LEHE7-.LEHB7
	.uleb128 .L38-.LFB1125
	.uleb128 0x3
	.uleb128 .LEHB8-.LFB1125
	.uleb128 .LEHE8-.LEHB8
	.uleb128 .L36-.LFB1125
	.uleb128 0x3
	.uleb128 .LEHB9-.LFB1125
	.uleb128 .LEHE9-.LEHB9
	.uleb128 .L34-.LFB1125
	.uleb128 0x1
.LLSDACSE1125:
	.byte	0x1
	.byte	0
	.byte	0
	.byte	0x7d
	.align 4
	.long	DW.ref._ZTISt9exception-.
.LLSDATT1125:
	.section	.text.startup
	.cfi_endproc
	.section	.text.unlikely
	.cfi_startproc
	.cfi_personality 0x9b,DW.ref.__gxx_personality_v0
	.cfi_lsda 0x1b,.LLSDAC1125
	.type	main.cold, @function
main.cold:
.LFSB1125:
.L26:
	.cfi_def_cfa_offset 240
	.cfi_offset 3, -48
	.cfi_offset 6, -40
	.cfi_offset 12, -32
	.cfi_offset 13, -24
	.cfi_offset 14, -16
.LBB480:
	.loc 9 18 5 view -0
	movq	%rbx, %rdi
	movq	%rbp, %rbx
	movq	%r14, %rbp
	call	_ZN4FormD1Ev@PLT
.LVL68:
.L25:
	.loc 9 18 5 discriminator 1 view .LVU184
	movq	%r13, %rdi
	call	_ZN10BureaucratD1Ev@PLT
.LVL69:
.L23:
	.loc 9 18 5 discriminator 3 view .LVU185
	movq	%r12, %rdi
	call	_ZN10BureaucratD1Ev@PLT
.LVL70:
	movq	%rbx, %rdi
.LVL71:
.L21:
	.loc 9 18 5 discriminator 3 view .LVU186
.LBE480:
	.loc 9 18 7 view .LVU187
	subq	$1, %rbp
	jne	.L44
.LBB481:
	.loc 9 18 36 discriminator 1 view .LVU188
	call	__cxa_begin_catch@PLT
.LVL72:
	.loc 9 20 61 view .LVU189
	leaq	.LC7(%rip), %rsi
	leaq	_ZSt4cerr(%rip), %rdi
	.loc 9 18 36 discriminator 1 view .LVU190
	movq	%rax, %rbx
.LVL73:
	.loc 9 20 9 is_stmt 1 view .LVU191
.LEHB10:
	.loc 9 20 61 is_stmt 0 view .LVU192
	call	_ZStlsISt11char_traitsIcEERSt13basic_ostreamIcT_ES5_PKc@PLT
.LVL74:
	.loc 9 20 61 view .LVU193
	movq	%rax, %rbp
	.loc 9 20 60 discriminator 1 view .LVU194
	movq	(%rbx), %rax
	.loc 9 20 61 discriminator 1 view .LVU195
	movq	%rbx, %rdi
	call	*16(%rax)
.LVL75:
	movq	%rbp, %rdi
	movq	%rax, %rsi
	call	_ZStlsISt11char_traitsIcEERSt13basic_ostreamIcT_ES5_PKc@PLT
.LVL76:
	movq	%rax, %rdi
.LVL77:
.LBB482:
.LBI482:
	.loc 7 110 7 is_stmt 1 view .LVU196
.LBB483:
	.loc 7 115 13 is_stmt 0 view .LVU197
	call	_ZSt4endlIcSt11char_traitsIcEERSt13basic_ostreamIT_T0_ES6_.isra.0
.LVL78:
.LEHE10:
	.loc 7 115 13 view .LVU198
.LBE483:
.LBE482:
	.loc 9 21 5 view .LVU199
	call	__cxa_end_catch@PLT
.LVL79:
	jmp	.L29
.LVL80:
.L24:
	.loc 9 21 5 view .LVU200
.LBE481:
.LBB484:
.LBB475:
.LBI460:
	.loc 2 803 7 is_stmt 1 view .LVU201
.LBB464:
	.loc 2 804 19 is_stmt 0 view .LVU202
	movq	%rbp, %rdi
	movq	%r14, %rbp
.LVL81:
	.loc 2 804 19 view .LVU203
	call	_ZNSt7__cxx1112basic_stringIcSt11char_traitsIcESaIcEE10_M_disposeEv@PLT
.LVL82:
.LBB462:
.LBI462:
	.loc 2 181 14 is_stmt 1 view .LVU204
.LBB463:
.LBI463:
	.loc 3 184 7 view .LVU205
	.loc 3 184 7 is_stmt 0 view .LVU206
	jmp	.L25
.LVL83:
.L22:
	.loc 3 184 7 view .LVU207
.LBE463:
.LBE462:
.LBE464:
.LBE475:
.LBB476:
.LBI465:
	.loc 2 803 7 is_stmt 1 view .LVU208
.LBB469:
	.loc 2 804 19 is_stmt 0 view .LVU209
	movq	%rbx, %rdi
	movq	%rbp, %rbx
.LVL84:
	.loc 2 804 19 view .LVU210
	movq	%r13, %rbp
	call	_ZNSt7__cxx1112basic_stringIcSt11char_traitsIcESaIcEE10_M_disposeEv@PLT
.LVL85:
.LBB467:
.LBI467:
	.loc 2 181 14 is_stmt 1 view .LVU211
.LBB468:
.LBI468:
	.loc 3 184 7 view .LVU212
	.loc 3 184 7 is_stmt 0 view .LVU213
	jmp	.L23
.LVL86:
.L20:
	.loc 3 184 7 view .LVU214
.LBE468:
.LBE467:
.LBE469:
.LBE476:
.LBB477:
.LBI470:
	.loc 2 803 7 is_stmt 1 view .LVU215
.LBB474:
	.loc 2 804 19 is_stmt 0 view .LVU216
	movq	%rbx, %rdi
	call	_ZNSt7__cxx1112basic_stringIcSt11char_traitsIcESaIcEE10_M_disposeEv@PLT
.LVL87:
.LBB472:
.LBI472:
	.loc 2 181 14 is_stmt 1 view .LVU217
.LBB473:
.LBI473:
	.loc 3 184 7 view .LVU218
	.loc 3 184 7 is_stmt 0 view .LVU219
	movq	%rbp, %rdi
	movq	%r12, %rbp
	jmp	.L21
.L44:
	movq	184(%rsp), %rax
	subq	%fs:40, %rax
	jne	.L45
.LEHB11:
	call	_Unwind_Resume@PLT
.LVL88:
.L45:
	call	__stack_chk_fail@PLT
.LVL89:
.L40:
	.loc 3 184 7 view .LVU220
	endbr64
.LBE473:
.LBE472:
.LBE474:
.LBE477:
.LBE484:
.LBB485:
	.loc 9 21 5 view .LVU221
	movq	%rax, %rbx
.LVL90:
	.loc 9 21 5 view .LVU222
	call	__cxa_end_catch@PLT
.LVL91:
	movq	184(%rsp), %rax
	subq	%fs:40, %rax
	jne	.L46
	movq	%rbx, %rdi
	call	_Unwind_Resume@PLT
.LVL92:
.LEHE11:
.L46:
	call	__stack_chk_fail@PLT
.LVL93:
.LBE485:
	.cfi_endproc
.LFE1125:
	.section	.gcc_except_table
	.align 4
.LLSDAC1125:
	.byte	0xff
	.byte	0x9b
	.uleb128 .LLSDATTC1125-.LLSDATTDC1125
.LLSDATTDC1125:
	.byte	0x1
	.uleb128 .LLSDACSEC1125-.LLSDACSBC1125
.LLSDACSBC1125:
	.uleb128 .LEHB10-.LCOLDB8
	.uleb128 .LEHE10-.LEHB10
	.uleb128 .L40-.LCOLDB8
	.uleb128 0
	.uleb128 .LEHB11-.LCOLDB8
	.uleb128 .LEHE11-.LEHB11
	.uleb128 0
	.uleb128 0
.LLSDACSEC1125:
	.byte	0x1
	.byte	0
	.byte	0
	.byte	0x7d
	.align 4
	.long	DW.ref._ZTISt9exception-.
.LLSDATTC1125:
	.section	.text.unlikely
	.section	.text.startup
	.size	main, .-main
	.section	.text.unlikely
	.size	main.cold, .-main.cold
.LCOLDE8:
	.section	.text.startup
.LHOTE8:
	.text
.Letext0:
	.section	.text.unlikely
.Letext_cold0:
	.file 10 "<built-in>"
	.file 11 "/usr/lib/gcc/x86_64-linux-gnu/13/include/stddef.h"
	.file 12 "/usr/include/x86_64-linux-gnu/bits/types/wint_t.h"
	.file 13 "/usr/include/x86_64-linux-gnu/bits/types/__mbstate_t.h"
	.file 14 "/usr/include/x86_64-linux-gnu/bits/types/mbstate_t.h"
	.file 15 "/usr/include/x86_64-linux-gnu/bits/types/__FILE.h"
	.file 16 "/usr/include/c++/13/cwchar"
	.file 17 "/usr/include/x86_64-linux-gnu/c++/13/bits/c++config.h"
	.file 18 "/usr/include/c++/13/clocale"
	.file 19 "/usr/include/c++/13/bits/stl_iterator_base_types.h"
	.file 20 "/usr/include/c++/13/bits/stringfwd.h"
	.file 21 "/usr/include/c++/13/bits/ios_base.h"
	.file 22 "/usr/include/c++/13/cwctype"
	.file 23 "/usr/include/c++/13/bits/ostream.tcc"
	.file 24 "/usr/include/c++/13/iosfwd"
	.file 25 "/usr/include/c++/13/iostream"
	.file 26 "/usr/include/c++/13/bits/basic_ios.tcc"
	.file 27 "/usr/include/c++/13/bits/ostream_insert.h"
	.file 28 "/usr/include/c++/13/bits/postypes.h"
	.file 29 "/usr/include/c++/13/bits/functexcept.h"
	.file 30 "/usr/include/c++/13/bits/stl_iterator_base_funcs.h"
	.file 31 "/usr/include/wchar.h"
	.file 32 "/usr/include/x86_64-linux-gnu/bits/wchar2.h"
	.file 33 "/usr/include/x86_64-linux-gnu/bits/types/struct_tm.h"
	.file 34 "/usr/include/c++/13/debug/debug.h"
	.file 35 "/usr/include/c++/13/bits/predefined_ops.h"
	.file 36 "/usr/include/c++/13/ext/alloc_traits.h"
	.file 37 "/usr/include/c++/13/bits/stl_iterator.h"
	.file 38 "/usr/include/locale.h"
	.file 39 "/usr/include/x86_64-linux-gnu/bits/types.h"
	.file 40 "/usr/include/x86_64-linux-gnu/bits/wctype-wchar.h"
	.file 41 "/usr/include/wctype.h"
	.file 42 "src/../inc/Form.hpp"
	.file 43 "src/../inc/Bureaucrat.hpp"
	.file 44 "/usr/include/c++/13/new"
	.section	.data.rel.local.DW.ref._ZTISt9exception,"awG",@progbits,DW.ref._ZTISt9exception,comdat
	.align 8
	.type	DW.ref._ZTISt9exception, @object
	.size	DW.ref._ZTISt9exception, 8
DW.ref._ZTISt9exception:
	.quad	_ZTISt9exception
	.hidden	DW.ref.__gxx_personality_v0
	.weak	DW.ref.__gxx_personality_v0
	.section	.data.rel.local.DW.ref.__gxx_personality_v0,"awG",@progbits,DW.ref.__gxx_personality_v0,comdat
	.align 8
	.type	DW.ref.__gxx_personality_v0, @object
	.size	DW.ref.__gxx_personality_v0, 8
DW.ref.__gxx_personality_v0:
	.quad	__gxx_personality_v0
	.ident	"GCC: (Ubuntu 13.3.0-6ubuntu2~24.04) 13.3.0"
	.section	.note.GNU-stack,"",@progbits
	.section	.note.gnu.property,"a"
	.align 8
	.long	1f - 0f
	.long	4f - 1f
	.long	5
0:
	.string	"GNU"
1:
	.align 8
	.long	0xc0000002
	.long	3f - 2f
2:
	.long	0x3
3:
	.align 8
4:
